ARM GAS  /tmp/cc4XmUnq.s 			page 1


   1              		.cpu cortex-m3
   2              		.eabi_attribute 20, 1
   3              		.eabi_attribute 21, 1
   4              		.eabi_attribute 23, 3
   5              		.eabi_attribute 24, 1
   6              		.eabi_attribute 25, 1
   7              		.eabi_attribute 26, 1
   8              		.eabi_attribute 30, 1
   9              		.eabi_attribute 34, 1
  10              		.eabi_attribute 18, 4
  11              		.file	"stm32f1xx_hal_can.c"
  12              		.text
  13              	.Ltext0:
  14              		.cfi_sections	.debug_frame
  15              		.section	.text.HAL_CAN_ConfigFilter,"ax",%progbits
  16              		.align	1
  17              		.global	HAL_CAN_ConfigFilter
  18              		.syntax unified
  19              		.thumb
  20              		.thumb_func
  21              		.fpu softvfp
  23              	HAL_CAN_ConfigFilter:
  24              	.LFB65:
  25              		.file 1 "Drivers/STM32F1xx_HAL_Driver/Src/stm32f1xx_hal_can.c"
   1:Drivers/STM32F1xx_HAL_Driver/Src/stm32f1xx_hal_can.c **** /**
   2:Drivers/STM32F1xx_HAL_Driver/Src/stm32f1xx_hal_can.c ****   ******************************************************************************
   3:Drivers/STM32F1xx_HAL_Driver/Src/stm32f1xx_hal_can.c ****   * @file    stm32f1xx_hal_can.c
   4:Drivers/STM32F1xx_HAL_Driver/Src/stm32f1xx_hal_can.c ****   * @author  MCD Application Team
   5:Drivers/STM32F1xx_HAL_Driver/Src/stm32f1xx_hal_can.c ****   * @brief   CAN HAL module driver.
   6:Drivers/STM32F1xx_HAL_Driver/Src/stm32f1xx_hal_can.c ****   *          This file provides firmware functions to manage the following 
   7:Drivers/STM32F1xx_HAL_Driver/Src/stm32f1xx_hal_can.c ****   *          functionalities of the Controller Area Network (CAN) peripheral:           
   8:Drivers/STM32F1xx_HAL_Driver/Src/stm32f1xx_hal_can.c ****   *           + Initialization and de-initialization functions 
   9:Drivers/STM32F1xx_HAL_Driver/Src/stm32f1xx_hal_can.c ****   *           + IO operation functions
  10:Drivers/STM32F1xx_HAL_Driver/Src/stm32f1xx_hal_can.c ****   *           + Peripheral Control functions
  11:Drivers/STM32F1xx_HAL_Driver/Src/stm32f1xx_hal_can.c ****   *           + Peripheral State and Error functions
  12:Drivers/STM32F1xx_HAL_Driver/Src/stm32f1xx_hal_can.c ****   *
  13:Drivers/STM32F1xx_HAL_Driver/Src/stm32f1xx_hal_can.c ****   @verbatim
  14:Drivers/STM32F1xx_HAL_Driver/Src/stm32f1xx_hal_can.c ****   ==============================================================================
  15:Drivers/STM32F1xx_HAL_Driver/Src/stm32f1xx_hal_can.c ****                         ##### How to use this driver #####
  16:Drivers/STM32F1xx_HAL_Driver/Src/stm32f1xx_hal_can.c ****   ==============================================================================
  17:Drivers/STM32F1xx_HAL_Driver/Src/stm32f1xx_hal_can.c ****     [..]            
  18:Drivers/STM32F1xx_HAL_Driver/Src/stm32f1xx_hal_can.c ****       (#) Enable the CAN controller interface clock using 
  19:Drivers/STM32F1xx_HAL_Driver/Src/stm32f1xx_hal_can.c ****           __HAL_RCC_CAN1_CLK_ENABLE() for CAN1 and __HAL_RCC_CAN2_CLK_ENABLE() for CAN2
  20:Drivers/STM32F1xx_HAL_Driver/Src/stm32f1xx_hal_can.c ****       -@- In case you are using CAN2 only, you have to enable the CAN1 clock.
  21:Drivers/STM32F1xx_HAL_Driver/Src/stm32f1xx_hal_can.c ****        
  22:Drivers/STM32F1xx_HAL_Driver/Src/stm32f1xx_hal_can.c ****       (#) CAN pins configuration
  23:Drivers/STM32F1xx_HAL_Driver/Src/stm32f1xx_hal_can.c ****         (++) Enable the clock for the CAN GPIOs using the following function:
  24:Drivers/STM32F1xx_HAL_Driver/Src/stm32f1xx_hal_can.c ****              __HAL_RCC_GPIOx_CLK_ENABLE();   
  25:Drivers/STM32F1xx_HAL_Driver/Src/stm32f1xx_hal_can.c ****         (++) Connect and configure the involved CAN pins using the 
  26:Drivers/STM32F1xx_HAL_Driver/Src/stm32f1xx_hal_can.c ****               following function HAL_GPIO_Init(); 
  27:Drivers/STM32F1xx_HAL_Driver/Src/stm32f1xx_hal_can.c ****               
  28:Drivers/STM32F1xx_HAL_Driver/Src/stm32f1xx_hal_can.c ****       (#) Initialize and configure the CAN using HAL_CAN_Init() function.   
  29:Drivers/STM32F1xx_HAL_Driver/Src/stm32f1xx_hal_can.c ****                  
  30:Drivers/STM32F1xx_HAL_Driver/Src/stm32f1xx_hal_can.c ****       (#) Transmit the desired CAN frame using HAL_CAN_Transmit() function.
  31:Drivers/STM32F1xx_HAL_Driver/Src/stm32f1xx_hal_can.c **** 
  32:Drivers/STM32F1xx_HAL_Driver/Src/stm32f1xx_hal_can.c ****       (#) Or transmit the desired CAN frame using HAL_CAN_Transmit_IT() function.
  33:Drivers/STM32F1xx_HAL_Driver/Src/stm32f1xx_hal_can.c ****            
ARM GAS  /tmp/cc4XmUnq.s 			page 2


  34:Drivers/STM32F1xx_HAL_Driver/Src/stm32f1xx_hal_can.c ****       (#) Receive a CAN frame using HAL_CAN_Receive() function.
  35:Drivers/STM32F1xx_HAL_Driver/Src/stm32f1xx_hal_can.c **** 
  36:Drivers/STM32F1xx_HAL_Driver/Src/stm32f1xx_hal_can.c ****       (#) Or receive a CAN frame using HAL_CAN_Receive_IT() function.
  37:Drivers/STM32F1xx_HAL_Driver/Src/stm32f1xx_hal_can.c **** 
  38:Drivers/STM32F1xx_HAL_Driver/Src/stm32f1xx_hal_can.c ****      *** Polling mode IO operation ***
  39:Drivers/STM32F1xx_HAL_Driver/Src/stm32f1xx_hal_can.c ****      =================================
  40:Drivers/STM32F1xx_HAL_Driver/Src/stm32f1xx_hal_can.c ****      [..]    
  41:Drivers/STM32F1xx_HAL_Driver/Src/stm32f1xx_hal_can.c ****        (+) Start the CAN peripheral transmission and wait the end of this operation 
  42:Drivers/STM32F1xx_HAL_Driver/Src/stm32f1xx_hal_can.c ****            using HAL_CAN_Transmit(), at this stage user can specify the value of timeout
  43:Drivers/STM32F1xx_HAL_Driver/Src/stm32f1xx_hal_can.c ****            according to his end application
  44:Drivers/STM32F1xx_HAL_Driver/Src/stm32f1xx_hal_can.c ****        (+) Start the CAN peripheral reception and wait the end of this operation 
  45:Drivers/STM32F1xx_HAL_Driver/Src/stm32f1xx_hal_can.c ****            using HAL_CAN_Receive(), at this stage user can specify the value of timeout
  46:Drivers/STM32F1xx_HAL_Driver/Src/stm32f1xx_hal_can.c ****            according to his end application 
  47:Drivers/STM32F1xx_HAL_Driver/Src/stm32f1xx_hal_can.c ****        
  48:Drivers/STM32F1xx_HAL_Driver/Src/stm32f1xx_hal_can.c ****      *** Interrupt mode IO operation ***    
  49:Drivers/STM32F1xx_HAL_Driver/Src/stm32f1xx_hal_can.c ****      ===================================
  50:Drivers/STM32F1xx_HAL_Driver/Src/stm32f1xx_hal_can.c ****      [..]    
  51:Drivers/STM32F1xx_HAL_Driver/Src/stm32f1xx_hal_can.c ****        (+) Start the CAN peripheral transmission using HAL_CAN_Transmit_IT()
  52:Drivers/STM32F1xx_HAL_Driver/Src/stm32f1xx_hal_can.c ****        (+) Start the CAN peripheral reception using HAL_CAN_Receive_IT()         
  53:Drivers/STM32F1xx_HAL_Driver/Src/stm32f1xx_hal_can.c ****        (+) Use HAL_CAN_IRQHandler() called under the used CAN Interrupt subroutine
  54:Drivers/STM32F1xx_HAL_Driver/Src/stm32f1xx_hal_can.c ****        (+) At CAN end of transmission HAL_CAN_TxCpltCallback() function is executed and user can 
  55:Drivers/STM32F1xx_HAL_Driver/Src/stm32f1xx_hal_can.c ****             add his own code by customization of function pointer HAL_CAN_TxCpltCallback 
  56:Drivers/STM32F1xx_HAL_Driver/Src/stm32f1xx_hal_can.c ****        (+) In case of CAN Error, HAL_CAN_ErrorCallback() function is executed and user can 
  57:Drivers/STM32F1xx_HAL_Driver/Src/stm32f1xx_hal_can.c ****             add his own code by customization of function pointer HAL_CAN_ErrorCallback
  58:Drivers/STM32F1xx_HAL_Driver/Src/stm32f1xx_hal_can.c ****  
  59:Drivers/STM32F1xx_HAL_Driver/Src/stm32f1xx_hal_can.c ****      *** CAN HAL driver macros list ***
  60:Drivers/STM32F1xx_HAL_Driver/Src/stm32f1xx_hal_can.c ****      ============================================= 
  61:Drivers/STM32F1xx_HAL_Driver/Src/stm32f1xx_hal_can.c ****      [..]
  62:Drivers/STM32F1xx_HAL_Driver/Src/stm32f1xx_hal_can.c ****        Below the list of most used macros in CAN HAL driver.
  63:Drivers/STM32F1xx_HAL_Driver/Src/stm32f1xx_hal_can.c ****        
  64:Drivers/STM32F1xx_HAL_Driver/Src/stm32f1xx_hal_can.c ****       (+) __HAL_CAN_ENABLE_IT: Enable the specified CAN interrupts
  65:Drivers/STM32F1xx_HAL_Driver/Src/stm32f1xx_hal_can.c ****       (+) __HAL_CAN_DISABLE_IT: Disable the specified CAN interrupts
  66:Drivers/STM32F1xx_HAL_Driver/Src/stm32f1xx_hal_can.c ****       (+) __HAL_CAN_GET_IT_SOURCE: Check if the specified CAN interrupt source is enabled or disabl
  67:Drivers/STM32F1xx_HAL_Driver/Src/stm32f1xx_hal_can.c ****       (+) __HAL_CAN_CLEAR_FLAG: Clear the CAN's pending flags
  68:Drivers/STM32F1xx_HAL_Driver/Src/stm32f1xx_hal_can.c ****       (+) __HAL_CAN_GET_FLAG: Get the selected CAN's flag status
  69:Drivers/STM32F1xx_HAL_Driver/Src/stm32f1xx_hal_can.c ****       
  70:Drivers/STM32F1xx_HAL_Driver/Src/stm32f1xx_hal_can.c ****      [..] 
  71:Drivers/STM32F1xx_HAL_Driver/Src/stm32f1xx_hal_can.c ****       (@) You can refer to the CAN HAL driver header file for more useful macros 
  72:Drivers/STM32F1xx_HAL_Driver/Src/stm32f1xx_hal_can.c ****                 
  73:Drivers/STM32F1xx_HAL_Driver/Src/stm32f1xx_hal_can.c ****   @endverbatim
  74:Drivers/STM32F1xx_HAL_Driver/Src/stm32f1xx_hal_can.c ****            
  75:Drivers/STM32F1xx_HAL_Driver/Src/stm32f1xx_hal_can.c ****   ******************************************************************************
  76:Drivers/STM32F1xx_HAL_Driver/Src/stm32f1xx_hal_can.c ****   * @attention
  77:Drivers/STM32F1xx_HAL_Driver/Src/stm32f1xx_hal_can.c ****   *
  78:Drivers/STM32F1xx_HAL_Driver/Src/stm32f1xx_hal_can.c ****   * <h2><center>&copy; COPYRIGHT(c) 2017 STMicroelectronics</center></h2>
  79:Drivers/STM32F1xx_HAL_Driver/Src/stm32f1xx_hal_can.c ****   *
  80:Drivers/STM32F1xx_HAL_Driver/Src/stm32f1xx_hal_can.c ****   * Redistribution and use in source and binary forms, with or without modification,
  81:Drivers/STM32F1xx_HAL_Driver/Src/stm32f1xx_hal_can.c ****   * are permitted provided that the following conditions are met:
  82:Drivers/STM32F1xx_HAL_Driver/Src/stm32f1xx_hal_can.c ****   *   1. Redistributions of source code must retain the above copyright notice,
  83:Drivers/STM32F1xx_HAL_Driver/Src/stm32f1xx_hal_can.c ****   *      this list of conditions and the following disclaimer.
  84:Drivers/STM32F1xx_HAL_Driver/Src/stm32f1xx_hal_can.c ****   *   2. Redistributions in binary form must reproduce the above copyright notice,
  85:Drivers/STM32F1xx_HAL_Driver/Src/stm32f1xx_hal_can.c ****   *      this list of conditions and the following disclaimer in the documentation
  86:Drivers/STM32F1xx_HAL_Driver/Src/stm32f1xx_hal_can.c ****   *      and/or other materials provided with the distribution.
  87:Drivers/STM32F1xx_HAL_Driver/Src/stm32f1xx_hal_can.c ****   *   3. Neither the name of STMicroelectronics nor the names of its contributors
  88:Drivers/STM32F1xx_HAL_Driver/Src/stm32f1xx_hal_can.c ****   *      may be used to endorse or promote products derived from this software
  89:Drivers/STM32F1xx_HAL_Driver/Src/stm32f1xx_hal_can.c ****   *      without specific prior written permission.
  90:Drivers/STM32F1xx_HAL_Driver/Src/stm32f1xx_hal_can.c ****   *
ARM GAS  /tmp/cc4XmUnq.s 			page 3


  91:Drivers/STM32F1xx_HAL_Driver/Src/stm32f1xx_hal_can.c ****   * THIS SOFTWARE IS PROVIDED BY THE COPYRIGHT HOLDERS AND CONTRIBUTORS "AS IS"
  92:Drivers/STM32F1xx_HAL_Driver/Src/stm32f1xx_hal_can.c ****   * AND ANY EXPRESS OR IMPLIED WARRANTIES, INCLUDING, BUT NOT LIMITED TO, THE
  93:Drivers/STM32F1xx_HAL_Driver/Src/stm32f1xx_hal_can.c ****   * IMPLIED WARRANTIES OF MERCHANTABILITY AND FITNESS FOR A PARTICULAR PURPOSE ARE
  94:Drivers/STM32F1xx_HAL_Driver/Src/stm32f1xx_hal_can.c ****   * DISCLAIMED. IN NO EVENT SHALL THE COPYRIGHT HOLDER OR CONTRIBUTORS BE LIABLE
  95:Drivers/STM32F1xx_HAL_Driver/Src/stm32f1xx_hal_can.c ****   * FOR ANY DIRECT, INDIRECT, INCIDENTAL, SPECIAL, EXEMPLARY, OR CONSEQUENTIAL
  96:Drivers/STM32F1xx_HAL_Driver/Src/stm32f1xx_hal_can.c ****   * DAMAGES (INCLUDING, BUT NOT LIMITED TO, PROCUREMENT OF SUBSTITUTE GOODS OR
  97:Drivers/STM32F1xx_HAL_Driver/Src/stm32f1xx_hal_can.c ****   * SERVICES; LOSS OF USE, DATA, OR PROFITS; OR BUSINESS INTERRUPTION) HOWEVER
  98:Drivers/STM32F1xx_HAL_Driver/Src/stm32f1xx_hal_can.c ****   * CAUSED AND ON ANY THEORY OF LIABILITY, WHETHER IN CONTRACT, STRICT LIABILITY,
  99:Drivers/STM32F1xx_HAL_Driver/Src/stm32f1xx_hal_can.c ****   * OR TORT (INCLUDING NEGLIGENCE OR OTHERWISE) ARISING IN ANY WAY OUT OF THE USE
 100:Drivers/STM32F1xx_HAL_Driver/Src/stm32f1xx_hal_can.c ****   * OF THIS SOFTWARE, EVEN IF ADVISED OF THE POSSIBILITY OF SUCH DAMAGE.
 101:Drivers/STM32F1xx_HAL_Driver/Src/stm32f1xx_hal_can.c ****   *
 102:Drivers/STM32F1xx_HAL_Driver/Src/stm32f1xx_hal_can.c ****   ******************************************************************************
 103:Drivers/STM32F1xx_HAL_Driver/Src/stm32f1xx_hal_can.c ****   */
 104:Drivers/STM32F1xx_HAL_Driver/Src/stm32f1xx_hal_can.c **** 
 105:Drivers/STM32F1xx_HAL_Driver/Src/stm32f1xx_hal_can.c **** /* Includes ------------------------------------------------------------------*/
 106:Drivers/STM32F1xx_HAL_Driver/Src/stm32f1xx_hal_can.c **** #include "stm32f1xx_hal.h"
 107:Drivers/STM32F1xx_HAL_Driver/Src/stm32f1xx_hal_can.c **** 
 108:Drivers/STM32F1xx_HAL_Driver/Src/stm32f1xx_hal_can.c **** /** @addtogroup STM32F1xx_HAL_Driver
 109:Drivers/STM32F1xx_HAL_Driver/Src/stm32f1xx_hal_can.c ****   * @{
 110:Drivers/STM32F1xx_HAL_Driver/Src/stm32f1xx_hal_can.c ****   */
 111:Drivers/STM32F1xx_HAL_Driver/Src/stm32f1xx_hal_can.c **** 
 112:Drivers/STM32F1xx_HAL_Driver/Src/stm32f1xx_hal_can.c **** /** @defgroup CAN CAN
 113:Drivers/STM32F1xx_HAL_Driver/Src/stm32f1xx_hal_can.c ****   * @brief CAN driver modules
 114:Drivers/STM32F1xx_HAL_Driver/Src/stm32f1xx_hal_can.c ****   * @{
 115:Drivers/STM32F1xx_HAL_Driver/Src/stm32f1xx_hal_can.c ****   */
 116:Drivers/STM32F1xx_HAL_Driver/Src/stm32f1xx_hal_can.c **** 
 117:Drivers/STM32F1xx_HAL_Driver/Src/stm32f1xx_hal_can.c **** #ifdef HAL_CAN_MODULE_ENABLED  
 118:Drivers/STM32F1xx_HAL_Driver/Src/stm32f1xx_hal_can.c ****   
 119:Drivers/STM32F1xx_HAL_Driver/Src/stm32f1xx_hal_can.c **** #if defined(STM32F103x6) || defined(STM32F103xB) || defined(STM32F103xE) || \
 120:Drivers/STM32F1xx_HAL_Driver/Src/stm32f1xx_hal_can.c ****     defined(STM32F103xG) || defined(STM32F105xC) || defined(STM32F107xC)
 121:Drivers/STM32F1xx_HAL_Driver/Src/stm32f1xx_hal_can.c ****   
 122:Drivers/STM32F1xx_HAL_Driver/Src/stm32f1xx_hal_can.c **** 
 123:Drivers/STM32F1xx_HAL_Driver/Src/stm32f1xx_hal_can.c **** /* Private typedef -----------------------------------------------------------*/
 124:Drivers/STM32F1xx_HAL_Driver/Src/stm32f1xx_hal_can.c **** /* Private define ------------------------------------------------------------*/
 125:Drivers/STM32F1xx_HAL_Driver/Src/stm32f1xx_hal_can.c **** /** @defgroup CAN_Private_Constants CAN Private Constants
 126:Drivers/STM32F1xx_HAL_Driver/Src/stm32f1xx_hal_can.c ****   * @{
 127:Drivers/STM32F1xx_HAL_Driver/Src/stm32f1xx_hal_can.c ****   */
 128:Drivers/STM32F1xx_HAL_Driver/Src/stm32f1xx_hal_can.c **** #define CAN_TIMEOUT_VALUE  10U
 129:Drivers/STM32F1xx_HAL_Driver/Src/stm32f1xx_hal_can.c **** /**
 130:Drivers/STM32F1xx_HAL_Driver/Src/stm32f1xx_hal_can.c ****   * @}
 131:Drivers/STM32F1xx_HAL_Driver/Src/stm32f1xx_hal_can.c ****   */
 132:Drivers/STM32F1xx_HAL_Driver/Src/stm32f1xx_hal_can.c **** /* Private macro -------------------------------------------------------------*/
 133:Drivers/STM32F1xx_HAL_Driver/Src/stm32f1xx_hal_can.c **** /* Private variables ---------------------------------------------------------*/
 134:Drivers/STM32F1xx_HAL_Driver/Src/stm32f1xx_hal_can.c **** /* Private function prototypes -----------------------------------------------*/
 135:Drivers/STM32F1xx_HAL_Driver/Src/stm32f1xx_hal_can.c **** /** @defgroup CAN_Private_Functions CAN Private Functions
 136:Drivers/STM32F1xx_HAL_Driver/Src/stm32f1xx_hal_can.c ****   * @{
 137:Drivers/STM32F1xx_HAL_Driver/Src/stm32f1xx_hal_can.c ****   */
 138:Drivers/STM32F1xx_HAL_Driver/Src/stm32f1xx_hal_can.c **** static HAL_StatusTypeDef CAN_Receive_IT(CAN_HandleTypeDef* hcan, uint8_t FIFONumber);
 139:Drivers/STM32F1xx_HAL_Driver/Src/stm32f1xx_hal_can.c **** static HAL_StatusTypeDef CAN_Transmit_IT(CAN_HandleTypeDef* hcan);
 140:Drivers/STM32F1xx_HAL_Driver/Src/stm32f1xx_hal_can.c **** /**
 141:Drivers/STM32F1xx_HAL_Driver/Src/stm32f1xx_hal_can.c ****   * @}
 142:Drivers/STM32F1xx_HAL_Driver/Src/stm32f1xx_hal_can.c ****   */
 143:Drivers/STM32F1xx_HAL_Driver/Src/stm32f1xx_hal_can.c **** 
 144:Drivers/STM32F1xx_HAL_Driver/Src/stm32f1xx_hal_can.c **** /* Exported functions --------------------------------------------------------*/
 145:Drivers/STM32F1xx_HAL_Driver/Src/stm32f1xx_hal_can.c **** /** @defgroup CAN_Exported_Functions CAN Exported Functions
 146:Drivers/STM32F1xx_HAL_Driver/Src/stm32f1xx_hal_can.c ****   * @{
 147:Drivers/STM32F1xx_HAL_Driver/Src/stm32f1xx_hal_can.c ****   */
ARM GAS  /tmp/cc4XmUnq.s 			page 4


 148:Drivers/STM32F1xx_HAL_Driver/Src/stm32f1xx_hal_can.c **** 
 149:Drivers/STM32F1xx_HAL_Driver/Src/stm32f1xx_hal_can.c **** /** @defgroup CAN_Exported_Functions_Group1 Initialization and de-initialization functions 
 150:Drivers/STM32F1xx_HAL_Driver/Src/stm32f1xx_hal_can.c ****  *  @brief    Initialization and Configuration functions 
 151:Drivers/STM32F1xx_HAL_Driver/Src/stm32f1xx_hal_can.c ****  *
 152:Drivers/STM32F1xx_HAL_Driver/Src/stm32f1xx_hal_can.c **** @verbatim    
 153:Drivers/STM32F1xx_HAL_Driver/Src/stm32f1xx_hal_can.c ****   ==============================================================================
 154:Drivers/STM32F1xx_HAL_Driver/Src/stm32f1xx_hal_can.c ****               ##### Initialization and de-initialization functions #####
 155:Drivers/STM32F1xx_HAL_Driver/Src/stm32f1xx_hal_can.c ****   ==============================================================================
 156:Drivers/STM32F1xx_HAL_Driver/Src/stm32f1xx_hal_can.c ****     [..]  This section provides functions allowing to:
 157:Drivers/STM32F1xx_HAL_Driver/Src/stm32f1xx_hal_can.c ****       (+) Initialize and configure the CAN. 
 158:Drivers/STM32F1xx_HAL_Driver/Src/stm32f1xx_hal_can.c ****       (+) De-initialize the CAN. 
 159:Drivers/STM32F1xx_HAL_Driver/Src/stm32f1xx_hal_can.c ****          
 160:Drivers/STM32F1xx_HAL_Driver/Src/stm32f1xx_hal_can.c **** @endverbatim
 161:Drivers/STM32F1xx_HAL_Driver/Src/stm32f1xx_hal_can.c ****   * @{
 162:Drivers/STM32F1xx_HAL_Driver/Src/stm32f1xx_hal_can.c ****   */
 163:Drivers/STM32F1xx_HAL_Driver/Src/stm32f1xx_hal_can.c ****   
 164:Drivers/STM32F1xx_HAL_Driver/Src/stm32f1xx_hal_can.c **** /**
 165:Drivers/STM32F1xx_HAL_Driver/Src/stm32f1xx_hal_can.c ****   * @brief  Initializes the CAN peripheral according to the specified
 166:Drivers/STM32F1xx_HAL_Driver/Src/stm32f1xx_hal_can.c ****   *         parameters in the CAN_InitStruct.
 167:Drivers/STM32F1xx_HAL_Driver/Src/stm32f1xx_hal_can.c ****   * @param  hcan: pointer to a CAN_HandleTypeDef structure that contains
 168:Drivers/STM32F1xx_HAL_Driver/Src/stm32f1xx_hal_can.c ****   *         the configuration information for the specified CAN.  
 169:Drivers/STM32F1xx_HAL_Driver/Src/stm32f1xx_hal_can.c ****   * @retval HAL status
 170:Drivers/STM32F1xx_HAL_Driver/Src/stm32f1xx_hal_can.c ****   */
 171:Drivers/STM32F1xx_HAL_Driver/Src/stm32f1xx_hal_can.c **** HAL_StatusTypeDef HAL_CAN_Init(CAN_HandleTypeDef* hcan)
 172:Drivers/STM32F1xx_HAL_Driver/Src/stm32f1xx_hal_can.c **** {
 173:Drivers/STM32F1xx_HAL_Driver/Src/stm32f1xx_hal_can.c ****   uint32_t status = CAN_INITSTATUS_FAILED;  /* Default init status */
 174:Drivers/STM32F1xx_HAL_Driver/Src/stm32f1xx_hal_can.c ****   uint32_t tickstart = 0U;
 175:Drivers/STM32F1xx_HAL_Driver/Src/stm32f1xx_hal_can.c ****   uint32_t tmp_mcr = 0U;
 176:Drivers/STM32F1xx_HAL_Driver/Src/stm32f1xx_hal_can.c ****   
 177:Drivers/STM32F1xx_HAL_Driver/Src/stm32f1xx_hal_can.c ****   /* Check CAN handle */
 178:Drivers/STM32F1xx_HAL_Driver/Src/stm32f1xx_hal_can.c ****   if(hcan == NULL)
 179:Drivers/STM32F1xx_HAL_Driver/Src/stm32f1xx_hal_can.c ****   {
 180:Drivers/STM32F1xx_HAL_Driver/Src/stm32f1xx_hal_can.c ****      return HAL_ERROR;
 181:Drivers/STM32F1xx_HAL_Driver/Src/stm32f1xx_hal_can.c ****   }
 182:Drivers/STM32F1xx_HAL_Driver/Src/stm32f1xx_hal_can.c **** 
 183:Drivers/STM32F1xx_HAL_Driver/Src/stm32f1xx_hal_can.c ****   /* Check the parameters */
 184:Drivers/STM32F1xx_HAL_Driver/Src/stm32f1xx_hal_can.c ****   assert_param(IS_CAN_ALL_INSTANCE(hcan->Instance));
 185:Drivers/STM32F1xx_HAL_Driver/Src/stm32f1xx_hal_can.c ****   assert_param(IS_FUNCTIONAL_STATE(hcan->Init.TTCM));
 186:Drivers/STM32F1xx_HAL_Driver/Src/stm32f1xx_hal_can.c ****   assert_param(IS_FUNCTIONAL_STATE(hcan->Init.ABOM));
 187:Drivers/STM32F1xx_HAL_Driver/Src/stm32f1xx_hal_can.c ****   assert_param(IS_FUNCTIONAL_STATE(hcan->Init.AWUM));
 188:Drivers/STM32F1xx_HAL_Driver/Src/stm32f1xx_hal_can.c ****   assert_param(IS_FUNCTIONAL_STATE(hcan->Init.NART));
 189:Drivers/STM32F1xx_HAL_Driver/Src/stm32f1xx_hal_can.c ****   assert_param(IS_FUNCTIONAL_STATE(hcan->Init.RFLM));
 190:Drivers/STM32F1xx_HAL_Driver/Src/stm32f1xx_hal_can.c ****   assert_param(IS_FUNCTIONAL_STATE(hcan->Init.TXFP));
 191:Drivers/STM32F1xx_HAL_Driver/Src/stm32f1xx_hal_can.c ****   assert_param(IS_CAN_MODE(hcan->Init.Mode));
 192:Drivers/STM32F1xx_HAL_Driver/Src/stm32f1xx_hal_can.c ****   assert_param(IS_CAN_SJW(hcan->Init.SJW));
 193:Drivers/STM32F1xx_HAL_Driver/Src/stm32f1xx_hal_can.c ****   assert_param(IS_CAN_BS1(hcan->Init.BS1));
 194:Drivers/STM32F1xx_HAL_Driver/Src/stm32f1xx_hal_can.c ****   assert_param(IS_CAN_BS2(hcan->Init.BS2));
 195:Drivers/STM32F1xx_HAL_Driver/Src/stm32f1xx_hal_can.c ****   assert_param(IS_CAN_PRESCALER(hcan->Init.Prescaler));
 196:Drivers/STM32F1xx_HAL_Driver/Src/stm32f1xx_hal_can.c ****   
 197:Drivers/STM32F1xx_HAL_Driver/Src/stm32f1xx_hal_can.c ****   if(hcan->State == HAL_CAN_STATE_RESET)
 198:Drivers/STM32F1xx_HAL_Driver/Src/stm32f1xx_hal_can.c ****   {
 199:Drivers/STM32F1xx_HAL_Driver/Src/stm32f1xx_hal_can.c ****     /* Allocate lock resource and initialize it */
 200:Drivers/STM32F1xx_HAL_Driver/Src/stm32f1xx_hal_can.c ****     hcan->Lock = HAL_UNLOCKED;
 201:Drivers/STM32F1xx_HAL_Driver/Src/stm32f1xx_hal_can.c ****     /* Init the low level hardware */
 202:Drivers/STM32F1xx_HAL_Driver/Src/stm32f1xx_hal_can.c ****     HAL_CAN_MspInit(hcan);
 203:Drivers/STM32F1xx_HAL_Driver/Src/stm32f1xx_hal_can.c ****   }
 204:Drivers/STM32F1xx_HAL_Driver/Src/stm32f1xx_hal_can.c ****   
ARM GAS  /tmp/cc4XmUnq.s 			page 5


 205:Drivers/STM32F1xx_HAL_Driver/Src/stm32f1xx_hal_can.c ****   /* Initialize the CAN state*/
 206:Drivers/STM32F1xx_HAL_Driver/Src/stm32f1xx_hal_can.c ****   hcan->State = HAL_CAN_STATE_BUSY;
 207:Drivers/STM32F1xx_HAL_Driver/Src/stm32f1xx_hal_can.c ****   
 208:Drivers/STM32F1xx_HAL_Driver/Src/stm32f1xx_hal_can.c ****   /* Exit from sleep mode */
 209:Drivers/STM32F1xx_HAL_Driver/Src/stm32f1xx_hal_can.c ****   CLEAR_BIT(hcan->Instance->MCR, CAN_MCR_SLEEP);
 210:Drivers/STM32F1xx_HAL_Driver/Src/stm32f1xx_hal_can.c **** 
 211:Drivers/STM32F1xx_HAL_Driver/Src/stm32f1xx_hal_can.c ****   /* Request initialisation */
 212:Drivers/STM32F1xx_HAL_Driver/Src/stm32f1xx_hal_can.c ****   SET_BIT(hcan->Instance->MCR, CAN_MCR_INRQ);
 213:Drivers/STM32F1xx_HAL_Driver/Src/stm32f1xx_hal_can.c **** 
 214:Drivers/STM32F1xx_HAL_Driver/Src/stm32f1xx_hal_can.c ****   /* Get timeout */
 215:Drivers/STM32F1xx_HAL_Driver/Src/stm32f1xx_hal_can.c ****   tickstart = HAL_GetTick();   
 216:Drivers/STM32F1xx_HAL_Driver/Src/stm32f1xx_hal_can.c ****   
 217:Drivers/STM32F1xx_HAL_Driver/Src/stm32f1xx_hal_can.c ****   /* Wait the acknowledge */
 218:Drivers/STM32F1xx_HAL_Driver/Src/stm32f1xx_hal_can.c ****   while(HAL_IS_BIT_CLR(hcan->Instance->MSR, CAN_MSR_INAK))
 219:Drivers/STM32F1xx_HAL_Driver/Src/stm32f1xx_hal_can.c ****   {
 220:Drivers/STM32F1xx_HAL_Driver/Src/stm32f1xx_hal_can.c ****     if((HAL_GetTick()-tickstart) > CAN_TIMEOUT_VALUE)
 221:Drivers/STM32F1xx_HAL_Driver/Src/stm32f1xx_hal_can.c ****     {
 222:Drivers/STM32F1xx_HAL_Driver/Src/stm32f1xx_hal_can.c ****       hcan->State= HAL_CAN_STATE_TIMEOUT;
 223:Drivers/STM32F1xx_HAL_Driver/Src/stm32f1xx_hal_can.c ****       /* Process unlocked */
 224:Drivers/STM32F1xx_HAL_Driver/Src/stm32f1xx_hal_can.c ****       __HAL_UNLOCK(hcan);
 225:Drivers/STM32F1xx_HAL_Driver/Src/stm32f1xx_hal_can.c ****       return HAL_TIMEOUT;
 226:Drivers/STM32F1xx_HAL_Driver/Src/stm32f1xx_hal_can.c ****     }
 227:Drivers/STM32F1xx_HAL_Driver/Src/stm32f1xx_hal_can.c ****   }
 228:Drivers/STM32F1xx_HAL_Driver/Src/stm32f1xx_hal_can.c **** 
 229:Drivers/STM32F1xx_HAL_Driver/Src/stm32f1xx_hal_can.c ****   /* Check acknowledge */
 230:Drivers/STM32F1xx_HAL_Driver/Src/stm32f1xx_hal_can.c ****   if ((hcan->Instance->MSR & CAN_MSR_INAK) == CAN_MSR_INAK)
 231:Drivers/STM32F1xx_HAL_Driver/Src/stm32f1xx_hal_can.c ****   {
 232:Drivers/STM32F1xx_HAL_Driver/Src/stm32f1xx_hal_can.c ****     /* Set the time triggered communication mode */
 233:Drivers/STM32F1xx_HAL_Driver/Src/stm32f1xx_hal_can.c ****     if (hcan->Init.TTCM == ENABLE)
 234:Drivers/STM32F1xx_HAL_Driver/Src/stm32f1xx_hal_can.c ****     {
 235:Drivers/STM32F1xx_HAL_Driver/Src/stm32f1xx_hal_can.c ****       SET_BIT(tmp_mcr, CAN_MCR_TTCM);
 236:Drivers/STM32F1xx_HAL_Driver/Src/stm32f1xx_hal_can.c ****     }
 237:Drivers/STM32F1xx_HAL_Driver/Src/stm32f1xx_hal_can.c ****     else
 238:Drivers/STM32F1xx_HAL_Driver/Src/stm32f1xx_hal_can.c ****     {
 239:Drivers/STM32F1xx_HAL_Driver/Src/stm32f1xx_hal_can.c ****       CLEAR_BIT(tmp_mcr, CAN_MCR_TTCM);
 240:Drivers/STM32F1xx_HAL_Driver/Src/stm32f1xx_hal_can.c ****     }
 241:Drivers/STM32F1xx_HAL_Driver/Src/stm32f1xx_hal_can.c **** 
 242:Drivers/STM32F1xx_HAL_Driver/Src/stm32f1xx_hal_can.c ****     /* Set the automatic bus-off management */
 243:Drivers/STM32F1xx_HAL_Driver/Src/stm32f1xx_hal_can.c ****     if (hcan->Init.ABOM == ENABLE)
 244:Drivers/STM32F1xx_HAL_Driver/Src/stm32f1xx_hal_can.c ****     {
 245:Drivers/STM32F1xx_HAL_Driver/Src/stm32f1xx_hal_can.c ****       SET_BIT(tmp_mcr, CAN_MCR_ABOM);
 246:Drivers/STM32F1xx_HAL_Driver/Src/stm32f1xx_hal_can.c ****     }
 247:Drivers/STM32F1xx_HAL_Driver/Src/stm32f1xx_hal_can.c ****     else
 248:Drivers/STM32F1xx_HAL_Driver/Src/stm32f1xx_hal_can.c ****     {
 249:Drivers/STM32F1xx_HAL_Driver/Src/stm32f1xx_hal_can.c ****       CLEAR_BIT(tmp_mcr, CAN_MCR_ABOM);
 250:Drivers/STM32F1xx_HAL_Driver/Src/stm32f1xx_hal_can.c ****     }
 251:Drivers/STM32F1xx_HAL_Driver/Src/stm32f1xx_hal_can.c **** 
 252:Drivers/STM32F1xx_HAL_Driver/Src/stm32f1xx_hal_can.c ****     /* Set the automatic wake-up mode */
 253:Drivers/STM32F1xx_HAL_Driver/Src/stm32f1xx_hal_can.c ****     if (hcan->Init.AWUM == ENABLE)
 254:Drivers/STM32F1xx_HAL_Driver/Src/stm32f1xx_hal_can.c ****     {
 255:Drivers/STM32F1xx_HAL_Driver/Src/stm32f1xx_hal_can.c ****       SET_BIT(tmp_mcr, CAN_MCR_AWUM);
 256:Drivers/STM32F1xx_HAL_Driver/Src/stm32f1xx_hal_can.c ****     }
 257:Drivers/STM32F1xx_HAL_Driver/Src/stm32f1xx_hal_can.c ****     else
 258:Drivers/STM32F1xx_HAL_Driver/Src/stm32f1xx_hal_can.c ****     {
 259:Drivers/STM32F1xx_HAL_Driver/Src/stm32f1xx_hal_can.c ****       CLEAR_BIT(tmp_mcr, CAN_MCR_AWUM);
 260:Drivers/STM32F1xx_HAL_Driver/Src/stm32f1xx_hal_can.c ****     }
 261:Drivers/STM32F1xx_HAL_Driver/Src/stm32f1xx_hal_can.c ****     /* Set the no automatic retransmission */
ARM GAS  /tmp/cc4XmUnq.s 			page 6


 262:Drivers/STM32F1xx_HAL_Driver/Src/stm32f1xx_hal_can.c ****     if (hcan->Init.NART == ENABLE)
 263:Drivers/STM32F1xx_HAL_Driver/Src/stm32f1xx_hal_can.c ****     {
 264:Drivers/STM32F1xx_HAL_Driver/Src/stm32f1xx_hal_can.c ****       SET_BIT(tmp_mcr, CAN_MCR_NART);
 265:Drivers/STM32F1xx_HAL_Driver/Src/stm32f1xx_hal_can.c ****     }
 266:Drivers/STM32F1xx_HAL_Driver/Src/stm32f1xx_hal_can.c ****     else
 267:Drivers/STM32F1xx_HAL_Driver/Src/stm32f1xx_hal_can.c ****     {
 268:Drivers/STM32F1xx_HAL_Driver/Src/stm32f1xx_hal_can.c ****       CLEAR_BIT(tmp_mcr, CAN_MCR_NART);
 269:Drivers/STM32F1xx_HAL_Driver/Src/stm32f1xx_hal_can.c ****     }
 270:Drivers/STM32F1xx_HAL_Driver/Src/stm32f1xx_hal_can.c **** 
 271:Drivers/STM32F1xx_HAL_Driver/Src/stm32f1xx_hal_can.c ****     /* Set the receive FIFO locked mode */
 272:Drivers/STM32F1xx_HAL_Driver/Src/stm32f1xx_hal_can.c ****     if (hcan->Init.RFLM == ENABLE)
 273:Drivers/STM32F1xx_HAL_Driver/Src/stm32f1xx_hal_can.c ****     {
 274:Drivers/STM32F1xx_HAL_Driver/Src/stm32f1xx_hal_can.c ****       SET_BIT(tmp_mcr, CAN_MCR_RFLM);
 275:Drivers/STM32F1xx_HAL_Driver/Src/stm32f1xx_hal_can.c ****     }
 276:Drivers/STM32F1xx_HAL_Driver/Src/stm32f1xx_hal_can.c ****     else
 277:Drivers/STM32F1xx_HAL_Driver/Src/stm32f1xx_hal_can.c ****     {
 278:Drivers/STM32F1xx_HAL_Driver/Src/stm32f1xx_hal_can.c ****       CLEAR_BIT(tmp_mcr, CAN_MCR_RFLM);
 279:Drivers/STM32F1xx_HAL_Driver/Src/stm32f1xx_hal_can.c ****     }
 280:Drivers/STM32F1xx_HAL_Driver/Src/stm32f1xx_hal_can.c ****     /* Set the transmit FIFO priority */
 281:Drivers/STM32F1xx_HAL_Driver/Src/stm32f1xx_hal_can.c ****     if (hcan->Init.TXFP == ENABLE)
 282:Drivers/STM32F1xx_HAL_Driver/Src/stm32f1xx_hal_can.c ****     {
 283:Drivers/STM32F1xx_HAL_Driver/Src/stm32f1xx_hal_can.c ****       SET_BIT(tmp_mcr, CAN_MCR_TXFP);
 284:Drivers/STM32F1xx_HAL_Driver/Src/stm32f1xx_hal_can.c ****     }
 285:Drivers/STM32F1xx_HAL_Driver/Src/stm32f1xx_hal_can.c ****     else
 286:Drivers/STM32F1xx_HAL_Driver/Src/stm32f1xx_hal_can.c ****     {
 287:Drivers/STM32F1xx_HAL_Driver/Src/stm32f1xx_hal_can.c ****       CLEAR_BIT(tmp_mcr, CAN_MCR_TXFP);
 288:Drivers/STM32F1xx_HAL_Driver/Src/stm32f1xx_hal_can.c ****     }
 289:Drivers/STM32F1xx_HAL_Driver/Src/stm32f1xx_hal_can.c ****     
 290:Drivers/STM32F1xx_HAL_Driver/Src/stm32f1xx_hal_can.c ****     /* Update register MCR */
 291:Drivers/STM32F1xx_HAL_Driver/Src/stm32f1xx_hal_can.c ****     MODIFY_REG(hcan->Instance->MCR,
 292:Drivers/STM32F1xx_HAL_Driver/Src/stm32f1xx_hal_can.c ****                CAN_MCR_TTCM |
 293:Drivers/STM32F1xx_HAL_Driver/Src/stm32f1xx_hal_can.c ****                CAN_MCR_ABOM |
 294:Drivers/STM32F1xx_HAL_Driver/Src/stm32f1xx_hal_can.c ****                CAN_MCR_AWUM |
 295:Drivers/STM32F1xx_HAL_Driver/Src/stm32f1xx_hal_can.c ****                CAN_MCR_NART |
 296:Drivers/STM32F1xx_HAL_Driver/Src/stm32f1xx_hal_can.c ****                CAN_MCR_RFLM |
 297:Drivers/STM32F1xx_HAL_Driver/Src/stm32f1xx_hal_can.c ****                CAN_MCR_TXFP,
 298:Drivers/STM32F1xx_HAL_Driver/Src/stm32f1xx_hal_can.c ****                tmp_mcr);
 299:Drivers/STM32F1xx_HAL_Driver/Src/stm32f1xx_hal_can.c ****     
 300:Drivers/STM32F1xx_HAL_Driver/Src/stm32f1xx_hal_can.c ****     /* Set the bit timing register */
 301:Drivers/STM32F1xx_HAL_Driver/Src/stm32f1xx_hal_can.c ****     WRITE_REG(hcan->Instance->BTR, (uint32_t)(hcan->Init.Mode           |
 302:Drivers/STM32F1xx_HAL_Driver/Src/stm32f1xx_hal_can.c ****                                               hcan->Init.SJW            |
 303:Drivers/STM32F1xx_HAL_Driver/Src/stm32f1xx_hal_can.c ****                                               hcan->Init.BS1            |
 304:Drivers/STM32F1xx_HAL_Driver/Src/stm32f1xx_hal_can.c ****                                               hcan->Init.BS2            |
 305:Drivers/STM32F1xx_HAL_Driver/Src/stm32f1xx_hal_can.c ****                                               (hcan->Init.Prescaler - 1U)));
 306:Drivers/STM32F1xx_HAL_Driver/Src/stm32f1xx_hal_can.c **** 
 307:Drivers/STM32F1xx_HAL_Driver/Src/stm32f1xx_hal_can.c ****     /* Request leave initialisation */
 308:Drivers/STM32F1xx_HAL_Driver/Src/stm32f1xx_hal_can.c ****     CLEAR_BIT(hcan->Instance->MCR, CAN_MCR_INRQ);
 309:Drivers/STM32F1xx_HAL_Driver/Src/stm32f1xx_hal_can.c **** 
 310:Drivers/STM32F1xx_HAL_Driver/Src/stm32f1xx_hal_can.c ****     /* Get timeout */
 311:Drivers/STM32F1xx_HAL_Driver/Src/stm32f1xx_hal_can.c ****     tickstart = HAL_GetTick();   
 312:Drivers/STM32F1xx_HAL_Driver/Src/stm32f1xx_hal_can.c ****    
 313:Drivers/STM32F1xx_HAL_Driver/Src/stm32f1xx_hal_can.c ****     /* Wait the acknowledge */
 314:Drivers/STM32F1xx_HAL_Driver/Src/stm32f1xx_hal_can.c ****     while(HAL_IS_BIT_SET(hcan->Instance->MSR, CAN_MSR_INAK))
 315:Drivers/STM32F1xx_HAL_Driver/Src/stm32f1xx_hal_can.c ****     {
 316:Drivers/STM32F1xx_HAL_Driver/Src/stm32f1xx_hal_can.c ****       if((HAL_GetTick()-tickstart) > CAN_TIMEOUT_VALUE)
 317:Drivers/STM32F1xx_HAL_Driver/Src/stm32f1xx_hal_can.c ****       {
 318:Drivers/STM32F1xx_HAL_Driver/Src/stm32f1xx_hal_can.c ****         hcan->State= HAL_CAN_STATE_TIMEOUT;
ARM GAS  /tmp/cc4XmUnq.s 			page 7


 319:Drivers/STM32F1xx_HAL_Driver/Src/stm32f1xx_hal_can.c **** 
 320:Drivers/STM32F1xx_HAL_Driver/Src/stm32f1xx_hal_can.c ****         /* Process unlocked */
 321:Drivers/STM32F1xx_HAL_Driver/Src/stm32f1xx_hal_can.c ****         __HAL_UNLOCK(hcan);
 322:Drivers/STM32F1xx_HAL_Driver/Src/stm32f1xx_hal_can.c **** 
 323:Drivers/STM32F1xx_HAL_Driver/Src/stm32f1xx_hal_can.c ****         return HAL_TIMEOUT;
 324:Drivers/STM32F1xx_HAL_Driver/Src/stm32f1xx_hal_can.c ****       }
 325:Drivers/STM32F1xx_HAL_Driver/Src/stm32f1xx_hal_can.c ****     }
 326:Drivers/STM32F1xx_HAL_Driver/Src/stm32f1xx_hal_can.c **** 
 327:Drivers/STM32F1xx_HAL_Driver/Src/stm32f1xx_hal_can.c ****     /* Check acknowledged */
 328:Drivers/STM32F1xx_HAL_Driver/Src/stm32f1xx_hal_can.c ****     if(HAL_IS_BIT_CLR(hcan->Instance->MSR, CAN_MSR_INAK))
 329:Drivers/STM32F1xx_HAL_Driver/Src/stm32f1xx_hal_can.c ****     {
 330:Drivers/STM32F1xx_HAL_Driver/Src/stm32f1xx_hal_can.c ****       status = CAN_INITSTATUS_SUCCESS;
 331:Drivers/STM32F1xx_HAL_Driver/Src/stm32f1xx_hal_can.c ****     }
 332:Drivers/STM32F1xx_HAL_Driver/Src/stm32f1xx_hal_can.c ****   }
 333:Drivers/STM32F1xx_HAL_Driver/Src/stm32f1xx_hal_can.c ****  
 334:Drivers/STM32F1xx_HAL_Driver/Src/stm32f1xx_hal_can.c ****   if(status == CAN_INITSTATUS_SUCCESS)
 335:Drivers/STM32F1xx_HAL_Driver/Src/stm32f1xx_hal_can.c ****   {
 336:Drivers/STM32F1xx_HAL_Driver/Src/stm32f1xx_hal_can.c ****     /* Set CAN error code to none */
 337:Drivers/STM32F1xx_HAL_Driver/Src/stm32f1xx_hal_can.c ****     hcan->ErrorCode = HAL_CAN_ERROR_NONE;
 338:Drivers/STM32F1xx_HAL_Driver/Src/stm32f1xx_hal_can.c ****     
 339:Drivers/STM32F1xx_HAL_Driver/Src/stm32f1xx_hal_can.c ****     /* Initialize the CAN state */
 340:Drivers/STM32F1xx_HAL_Driver/Src/stm32f1xx_hal_can.c ****     hcan->State = HAL_CAN_STATE_READY;
 341:Drivers/STM32F1xx_HAL_Driver/Src/stm32f1xx_hal_can.c ****   
 342:Drivers/STM32F1xx_HAL_Driver/Src/stm32f1xx_hal_can.c ****     /* Return function status */
 343:Drivers/STM32F1xx_HAL_Driver/Src/stm32f1xx_hal_can.c ****     return HAL_OK;
 344:Drivers/STM32F1xx_HAL_Driver/Src/stm32f1xx_hal_can.c ****   }
 345:Drivers/STM32F1xx_HAL_Driver/Src/stm32f1xx_hal_can.c ****   else
 346:Drivers/STM32F1xx_HAL_Driver/Src/stm32f1xx_hal_can.c ****   {
 347:Drivers/STM32F1xx_HAL_Driver/Src/stm32f1xx_hal_can.c ****     /* Initialize the CAN state */
 348:Drivers/STM32F1xx_HAL_Driver/Src/stm32f1xx_hal_can.c ****     hcan->State = HAL_CAN_STATE_ERROR;
 349:Drivers/STM32F1xx_HAL_Driver/Src/stm32f1xx_hal_can.c **** 
 350:Drivers/STM32F1xx_HAL_Driver/Src/stm32f1xx_hal_can.c ****     /* Return function status */
 351:Drivers/STM32F1xx_HAL_Driver/Src/stm32f1xx_hal_can.c ****     return HAL_ERROR;
 352:Drivers/STM32F1xx_HAL_Driver/Src/stm32f1xx_hal_can.c ****   }
 353:Drivers/STM32F1xx_HAL_Driver/Src/stm32f1xx_hal_can.c **** }
 354:Drivers/STM32F1xx_HAL_Driver/Src/stm32f1xx_hal_can.c **** 
 355:Drivers/STM32F1xx_HAL_Driver/Src/stm32f1xx_hal_can.c **** /**
 356:Drivers/STM32F1xx_HAL_Driver/Src/stm32f1xx_hal_can.c ****   * @brief  Configures the CAN reception filter according to the specified
 357:Drivers/STM32F1xx_HAL_Driver/Src/stm32f1xx_hal_can.c ****   *         parameters in the CAN_FilterInitStruct.
 358:Drivers/STM32F1xx_HAL_Driver/Src/stm32f1xx_hal_can.c ****   * @param  hcan: pointer to a CAN_HandleTypeDef structure that contains
 359:Drivers/STM32F1xx_HAL_Driver/Src/stm32f1xx_hal_can.c ****   *         the configuration information for the specified CAN.
 360:Drivers/STM32F1xx_HAL_Driver/Src/stm32f1xx_hal_can.c ****   * @param  sFilterConfig: pointer to a CAN_FilterConfTypeDef structure that
 361:Drivers/STM32F1xx_HAL_Driver/Src/stm32f1xx_hal_can.c ****   *         contains the filter configuration information.
 362:Drivers/STM32F1xx_HAL_Driver/Src/stm32f1xx_hal_can.c ****   * @retval None
 363:Drivers/STM32F1xx_HAL_Driver/Src/stm32f1xx_hal_can.c ****   */
 364:Drivers/STM32F1xx_HAL_Driver/Src/stm32f1xx_hal_can.c **** HAL_StatusTypeDef HAL_CAN_ConfigFilter(CAN_HandleTypeDef* hcan, CAN_FilterConfTypeDef* sFilterConfi
 365:Drivers/STM32F1xx_HAL_Driver/Src/stm32f1xx_hal_can.c **** {
  26              		.loc 1 365 0
  27              		.cfi_startproc
  28              		@ args = 0, pretend = 0, frame = 0
  29              		@ frame_needed = 0, uses_anonymous_args = 0
  30              		@ link register save eliminated.
  31              	.LVL0:
  32 0000 F0B4     		push	{r4, r5, r6, r7}
  33              	.LCFI0:
  34              		.cfi_def_cfa_offset 16
  35              		.cfi_offset 4, -16
ARM GAS  /tmp/cc4XmUnq.s 			page 8


  36              		.cfi_offset 5, -12
  37              		.cfi_offset 6, -8
  38              		.cfi_offset 7, -4
  39              	.LVL1:
 366:Drivers/STM32F1xx_HAL_Driver/Src/stm32f1xx_hal_can.c ****   uint32_t filternbrbitpos = 0U;
 367:Drivers/STM32F1xx_HAL_Driver/Src/stm32f1xx_hal_can.c ****   
 368:Drivers/STM32F1xx_HAL_Driver/Src/stm32f1xx_hal_can.c ****   /* Prevent unused argument(s) compilation warning */
 369:Drivers/STM32F1xx_HAL_Driver/Src/stm32f1xx_hal_can.c ****   UNUSED(hcan);
 370:Drivers/STM32F1xx_HAL_Driver/Src/stm32f1xx_hal_can.c **** 
 371:Drivers/STM32F1xx_HAL_Driver/Src/stm32f1xx_hal_can.c ****   /* Check the parameters */
 372:Drivers/STM32F1xx_HAL_Driver/Src/stm32f1xx_hal_can.c ****   assert_param(IS_CAN_FILTER_NUMBER(sFilterConfig->FilterNumber));
 373:Drivers/STM32F1xx_HAL_Driver/Src/stm32f1xx_hal_can.c ****   assert_param(IS_CAN_FILTER_MODE(sFilterConfig->FilterMode));
 374:Drivers/STM32F1xx_HAL_Driver/Src/stm32f1xx_hal_can.c ****   assert_param(IS_CAN_FILTER_SCALE(sFilterConfig->FilterScale));
 375:Drivers/STM32F1xx_HAL_Driver/Src/stm32f1xx_hal_can.c ****   assert_param(IS_CAN_FILTER_FIFO(sFilterConfig->FilterFIFOAssignment));
 376:Drivers/STM32F1xx_HAL_Driver/Src/stm32f1xx_hal_can.c ****   assert_param(IS_FUNCTIONAL_STATE(sFilterConfig->FilterActivation));
 377:Drivers/STM32F1xx_HAL_Driver/Src/stm32f1xx_hal_can.c ****   assert_param(IS_CAN_BANKNUMBER(sFilterConfig->BankNumber));
 378:Drivers/STM32F1xx_HAL_Driver/Src/stm32f1xx_hal_can.c ****   
 379:Drivers/STM32F1xx_HAL_Driver/Src/stm32f1xx_hal_can.c ****   filternbrbitpos = (1U) << sFilterConfig->FilterNumber;
  40              		.loc 1 379 0
  41 0002 4B69     		ldr	r3, [r1, #20]
  42 0004 0122     		movs	r2, #1
  43 0006 9A40     		lsls	r2, r2, r3
  44              	.LVL2:
 380:Drivers/STM32F1xx_HAL_Driver/Src/stm32f1xx_hal_can.c **** 
 381:Drivers/STM32F1xx_HAL_Driver/Src/stm32f1xx_hal_can.c ****   /* Initialisation mode for the filter */
 382:Drivers/STM32F1xx_HAL_Driver/Src/stm32f1xx_hal_can.c ****   /* Select the start slave bank */
 383:Drivers/STM32F1xx_HAL_Driver/Src/stm32f1xx_hal_can.c ****   MODIFY_REG(hcan->Instance->FMR                         ,
  45              		.loc 1 383 0
  46 0008 0468     		ldr	r4, [r0]
  47 000a D4F80032 		ldr	r3, [r4, #512]
  48 000e 23F47C53 		bic	r3, r3, #16128
  49 0012 4D6A     		ldr	r5, [r1, #36]
  50 0014 43EA0523 		orr	r3, r3, r5, lsl #8
  51 0018 43F00103 		orr	r3, r3, #1
  52 001c C4F80032 		str	r3, [r4, #512]
 384:Drivers/STM32F1xx_HAL_Driver/Src/stm32f1xx_hal_can.c ****              CAN_FMR_CAN2SB                              ,
 385:Drivers/STM32F1xx_HAL_Driver/Src/stm32f1xx_hal_can.c ****              CAN_FMR_FINIT                              |
 386:Drivers/STM32F1xx_HAL_Driver/Src/stm32f1xx_hal_can.c ****              (uint32_t)(sFilterConfig->BankNumber << 8U)   );
 387:Drivers/STM32F1xx_HAL_Driver/Src/stm32f1xx_hal_can.c **** 
 388:Drivers/STM32F1xx_HAL_Driver/Src/stm32f1xx_hal_can.c ****   /* Filter Deactivation */
 389:Drivers/STM32F1xx_HAL_Driver/Src/stm32f1xx_hal_can.c ****   CLEAR_BIT(hcan->Instance->FA1R, filternbrbitpos);
  53              		.loc 1 389 0
  54 0020 0568     		ldr	r5, [r0]
  55 0022 D5F81C42 		ldr	r4, [r5, #540]
  56 0026 D343     		mvns	r3, r2
  57 0028 1C40     		ands	r4, r4, r3
  58 002a C5F81C42 		str	r4, [r5, #540]
 390:Drivers/STM32F1xx_HAL_Driver/Src/stm32f1xx_hal_can.c **** 
 391:Drivers/STM32F1xx_HAL_Driver/Src/stm32f1xx_hal_can.c ****   /* Filter Scale */
 392:Drivers/STM32F1xx_HAL_Driver/Src/stm32f1xx_hal_can.c ****   if (sFilterConfig->FilterScale == CAN_FILTERSCALE_16BIT)
  59              		.loc 1 392 0
  60 002e CC69     		ldr	r4, [r1, #28]
  61 0030 C4B9     		cbnz	r4, .L2
 393:Drivers/STM32F1xx_HAL_Driver/Src/stm32f1xx_hal_can.c ****   {
 394:Drivers/STM32F1xx_HAL_Driver/Src/stm32f1xx_hal_can.c ****     /* 16-bit scale for the filter */
 395:Drivers/STM32F1xx_HAL_Driver/Src/stm32f1xx_hal_can.c ****     CLEAR_BIT(hcan->Instance->FS1R, filternbrbitpos);
  62              		.loc 1 395 0
ARM GAS  /tmp/cc4XmUnq.s 			page 9


  63 0032 0568     		ldr	r5, [r0]
  64 0034 D5F80C42 		ldr	r4, [r5, #524]
  65 0038 1C40     		ands	r4, r4, r3
  66 003a C5F80C42 		str	r4, [r5, #524]
 396:Drivers/STM32F1xx_HAL_Driver/Src/stm32f1xx_hal_can.c **** 
 397:Drivers/STM32F1xx_HAL_Driver/Src/stm32f1xx_hal_can.c ****     /* First 16-bit identifier and First 16-bit mask */
 398:Drivers/STM32F1xx_HAL_Driver/Src/stm32f1xx_hal_can.c ****     /* Or First 16-bit identifier and Second 16-bit identifier */
 399:Drivers/STM32F1xx_HAL_Driver/Src/stm32f1xx_hal_can.c ****     hcan->Instance->sFilterRegister[sFilterConfig->FilterNumber].FR1 = 
  67              		.loc 1 399 0
  68 003e 0668     		ldr	r6, [r0]
  69 0040 4C69     		ldr	r4, [r1, #20]
 400:Drivers/STM32F1xx_HAL_Driver/Src/stm32f1xx_hal_can.c ****        ((0x0000FFFFU & (uint32_t)sFilterConfig->FilterMaskIdLow) << 16U) |
  70              		.loc 1 400 0
  71 0042 CF68     		ldr	r7, [r1, #12]
 401:Drivers/STM32F1xx_HAL_Driver/Src/stm32f1xx_hal_can.c ****         (0x0000FFFFU & (uint32_t)sFilterConfig->FilterIdLow);
  72              		.loc 1 401 0
  73 0044 8D88     		ldrh	r5, [r1, #4]
 400:Drivers/STM32F1xx_HAL_Driver/Src/stm32f1xx_hal_can.c ****        ((0x0000FFFFU & (uint32_t)sFilterConfig->FilterMaskIdLow) << 16U) |
  74              		.loc 1 400 0
  75 0046 45EA0745 		orr	r5, r5, r7, lsl #16
 399:Drivers/STM32F1xx_HAL_Driver/Src/stm32f1xx_hal_can.c ****        ((0x0000FFFFU & (uint32_t)sFilterConfig->FilterMaskIdLow) << 16U) |
  76              		.loc 1 399 0
  77 004a 4834     		adds	r4, r4, #72
  78 004c 46F83450 		str	r5, [r6, r4, lsl #3]
 402:Drivers/STM32F1xx_HAL_Driver/Src/stm32f1xx_hal_can.c **** 
 403:Drivers/STM32F1xx_HAL_Driver/Src/stm32f1xx_hal_can.c ****     /* Second 16-bit identifier and Second 16-bit mask */
 404:Drivers/STM32F1xx_HAL_Driver/Src/stm32f1xx_hal_can.c ****     /* Or Third 16-bit identifier and Fourth 16-bit identifier */
 405:Drivers/STM32F1xx_HAL_Driver/Src/stm32f1xx_hal_can.c ****     hcan->Instance->sFilterRegister[sFilterConfig->FilterNumber].FR2 = 
  79              		.loc 1 405 0
  80 0050 0468     		ldr	r4, [r0]
  81 0052 4E69     		ldr	r6, [r1, #20]
 406:Drivers/STM32F1xx_HAL_Driver/Src/stm32f1xx_hal_can.c ****        ((0x0000FFFFU & (uint32_t)sFilterConfig->FilterMaskIdHigh) << 16U) |
  82              		.loc 1 406 0
  83 0054 8F68     		ldr	r7, [r1, #8]
 407:Drivers/STM32F1xx_HAL_Driver/Src/stm32f1xx_hal_can.c ****         (0x0000FFFFU & (uint32_t)sFilterConfig->FilterIdHigh);
  84              		.loc 1 407 0
  85 0056 0D88     		ldrh	r5, [r1]
 406:Drivers/STM32F1xx_HAL_Driver/Src/stm32f1xx_hal_can.c ****        ((0x0000FFFFU & (uint32_t)sFilterConfig->FilterMaskIdHigh) << 16U) |
  86              		.loc 1 406 0
  87 0058 45EA0745 		orr	r5, r5, r7, lsl #16
 405:Drivers/STM32F1xx_HAL_Driver/Src/stm32f1xx_hal_can.c ****        ((0x0000FFFFU & (uint32_t)sFilterConfig->FilterMaskIdHigh) << 16U) |
  88              		.loc 1 405 0
  89 005c 4836     		adds	r6, r6, #72
  90 005e 04EBC604 		add	r4, r4, r6, lsl #3
  91 0062 6560     		str	r5, [r4, #4]
  92              	.L2:
 408:Drivers/STM32F1xx_HAL_Driver/Src/stm32f1xx_hal_can.c ****   }
 409:Drivers/STM32F1xx_HAL_Driver/Src/stm32f1xx_hal_can.c **** 
 410:Drivers/STM32F1xx_HAL_Driver/Src/stm32f1xx_hal_can.c ****   if (sFilterConfig->FilterScale == CAN_FILTERSCALE_32BIT)
  93              		.loc 1 410 0
  94 0064 CC69     		ldr	r4, [r1, #28]
  95 0066 012C     		cmp	r4, #1
  96 0068 1ED0     		beq	.L10
  97              	.L3:
 411:Drivers/STM32F1xx_HAL_Driver/Src/stm32f1xx_hal_can.c ****   {
 412:Drivers/STM32F1xx_HAL_Driver/Src/stm32f1xx_hal_can.c ****     /* 32-bit scale for the filter */
 413:Drivers/STM32F1xx_HAL_Driver/Src/stm32f1xx_hal_can.c ****     SET_BIT(hcan->Instance->FS1R, filternbrbitpos);
ARM GAS  /tmp/cc4XmUnq.s 			page 10


 414:Drivers/STM32F1xx_HAL_Driver/Src/stm32f1xx_hal_can.c ****     /* 32-bit identifier or First 32-bit identifier */
 415:Drivers/STM32F1xx_HAL_Driver/Src/stm32f1xx_hal_can.c ****     hcan->Instance->sFilterRegister[sFilterConfig->FilterNumber].FR1 = 
 416:Drivers/STM32F1xx_HAL_Driver/Src/stm32f1xx_hal_can.c ****        ((0x0000FFFFU & (uint32_t)sFilterConfig->FilterIdHigh) << 16U) |
 417:Drivers/STM32F1xx_HAL_Driver/Src/stm32f1xx_hal_can.c ****         (0x0000FFFFU & (uint32_t)sFilterConfig->FilterIdLow);
 418:Drivers/STM32F1xx_HAL_Driver/Src/stm32f1xx_hal_can.c ****     /* 32-bit mask or Second 32-bit identifier */
 419:Drivers/STM32F1xx_HAL_Driver/Src/stm32f1xx_hal_can.c ****     hcan->Instance->sFilterRegister[sFilterConfig->FilterNumber].FR2 = 
 420:Drivers/STM32F1xx_HAL_Driver/Src/stm32f1xx_hal_can.c ****        ((0x0000FFFFU & (uint32_t)sFilterConfig->FilterMaskIdHigh) << 16U) |
 421:Drivers/STM32F1xx_HAL_Driver/Src/stm32f1xx_hal_can.c ****         (0x0000FFFFU & (uint32_t)sFilterConfig->FilterMaskIdLow);
 422:Drivers/STM32F1xx_HAL_Driver/Src/stm32f1xx_hal_can.c ****   }
 423:Drivers/STM32F1xx_HAL_Driver/Src/stm32f1xx_hal_can.c **** 
 424:Drivers/STM32F1xx_HAL_Driver/Src/stm32f1xx_hal_can.c ****   /* Filter Mode */
 425:Drivers/STM32F1xx_HAL_Driver/Src/stm32f1xx_hal_can.c ****   if (sFilterConfig->FilterMode == CAN_FILTERMODE_IDMASK)
  98              		.loc 1 425 0
  99 006a 8C69     		ldr	r4, [r1, #24]
 100 006c 002C     		cmp	r4, #0
 101 006e 35D1     		bne	.L4
 426:Drivers/STM32F1xx_HAL_Driver/Src/stm32f1xx_hal_can.c ****   {
 427:Drivers/STM32F1xx_HAL_Driver/Src/stm32f1xx_hal_can.c ****     /*Id/Mask mode for the filter*/
 428:Drivers/STM32F1xx_HAL_Driver/Src/stm32f1xx_hal_can.c ****     CLEAR_BIT(hcan->Instance->FM1R, filternbrbitpos);
 102              		.loc 1 428 0
 103 0070 0568     		ldr	r5, [r0]
 104 0072 D5F80442 		ldr	r4, [r5, #516]
 105 0076 1C40     		ands	r4, r4, r3
 106 0078 C5F80442 		str	r4, [r5, #516]
 107              	.L5:
 429:Drivers/STM32F1xx_HAL_Driver/Src/stm32f1xx_hal_can.c ****   }
 430:Drivers/STM32F1xx_HAL_Driver/Src/stm32f1xx_hal_can.c ****   else /* CAN_FilterInitStruct->CAN_FilterMode == CAN_FilterMode_IdList */
 431:Drivers/STM32F1xx_HAL_Driver/Src/stm32f1xx_hal_can.c ****   {
 432:Drivers/STM32F1xx_HAL_Driver/Src/stm32f1xx_hal_can.c ****     /*Identifier list mode for the filter*/
 433:Drivers/STM32F1xx_HAL_Driver/Src/stm32f1xx_hal_can.c ****     SET_BIT(hcan->Instance->FM1R, filternbrbitpos);
 434:Drivers/STM32F1xx_HAL_Driver/Src/stm32f1xx_hal_can.c ****   }
 435:Drivers/STM32F1xx_HAL_Driver/Src/stm32f1xx_hal_can.c **** 
 436:Drivers/STM32F1xx_HAL_Driver/Src/stm32f1xx_hal_can.c ****   /* Filter FIFO assignment */
 437:Drivers/STM32F1xx_HAL_Driver/Src/stm32f1xx_hal_can.c ****   if (sFilterConfig->FilterFIFOAssignment == CAN_FILTER_FIFO0)
 108              		.loc 1 437 0
 109 007c 0C69     		ldr	r4, [r1, #16]
 110 007e 002C     		cmp	r4, #0
 111 0080 33D1     		bne	.L6
 438:Drivers/STM32F1xx_HAL_Driver/Src/stm32f1xx_hal_can.c ****   {
 439:Drivers/STM32F1xx_HAL_Driver/Src/stm32f1xx_hal_can.c ****     /* FIFO 0 assignation for the filter */
 440:Drivers/STM32F1xx_HAL_Driver/Src/stm32f1xx_hal_can.c ****     CLEAR_BIT(hcan->Instance->FFA1R, filternbrbitpos);
 112              		.loc 1 440 0
 113 0082 0468     		ldr	r4, [r0]
 114 0084 D4F81452 		ldr	r5, [r4, #532]
 115 0088 2B40     		ands	r3, r3, r5
 116 008a C4F81432 		str	r3, [r4, #532]
 117              	.L7:
 441:Drivers/STM32F1xx_HAL_Driver/Src/stm32f1xx_hal_can.c ****   }
 442:Drivers/STM32F1xx_HAL_Driver/Src/stm32f1xx_hal_can.c ****   else
 443:Drivers/STM32F1xx_HAL_Driver/Src/stm32f1xx_hal_can.c ****   {
 444:Drivers/STM32F1xx_HAL_Driver/Src/stm32f1xx_hal_can.c ****     /* FIFO 1 assignation for the filter */
 445:Drivers/STM32F1xx_HAL_Driver/Src/stm32f1xx_hal_can.c ****     SET_BIT(hcan->Instance->FFA1R, filternbrbitpos);
 446:Drivers/STM32F1xx_HAL_Driver/Src/stm32f1xx_hal_can.c ****   }
 447:Drivers/STM32F1xx_HAL_Driver/Src/stm32f1xx_hal_can.c ****   
 448:Drivers/STM32F1xx_HAL_Driver/Src/stm32f1xx_hal_can.c ****   /* Filter activation */
 449:Drivers/STM32F1xx_HAL_Driver/Src/stm32f1xx_hal_can.c ****   if (sFilterConfig->FilterActivation == ENABLE)
 118              		.loc 1 449 0
ARM GAS  /tmp/cc4XmUnq.s 			page 11


 119 008e 0B6A     		ldr	r3, [r1, #32]
 120 0090 012B     		cmp	r3, #1
 121 0092 31D0     		beq	.L11
 122              	.LVL3:
 123              	.L8:
 450:Drivers/STM32F1xx_HAL_Driver/Src/stm32f1xx_hal_can.c ****   {
 451:Drivers/STM32F1xx_HAL_Driver/Src/stm32f1xx_hal_can.c ****     SET_BIT(hcan->Instance->FA1R, filternbrbitpos);
 452:Drivers/STM32F1xx_HAL_Driver/Src/stm32f1xx_hal_can.c ****   }
 453:Drivers/STM32F1xx_HAL_Driver/Src/stm32f1xx_hal_can.c **** 
 454:Drivers/STM32F1xx_HAL_Driver/Src/stm32f1xx_hal_can.c ****   /* Leave the initialisation mode for the filter */
 455:Drivers/STM32F1xx_HAL_Driver/Src/stm32f1xx_hal_can.c ****   CLEAR_BIT(hcan->Instance->FMR, ((uint32_t)CAN_FMR_FINIT));
 124              		.loc 1 455 0
 125 0094 0268     		ldr	r2, [r0]
 126 0096 D2F80032 		ldr	r3, [r2, #512]
 127 009a 23F00103 		bic	r3, r3, #1
 128 009e C2F80032 		str	r3, [r2, #512]
 456:Drivers/STM32F1xx_HAL_Driver/Src/stm32f1xx_hal_can.c ****   
 457:Drivers/STM32F1xx_HAL_Driver/Src/stm32f1xx_hal_can.c ****   /* Return function status */
 458:Drivers/STM32F1xx_HAL_Driver/Src/stm32f1xx_hal_can.c ****   return HAL_OK;
 459:Drivers/STM32F1xx_HAL_Driver/Src/stm32f1xx_hal_can.c **** }
 129              		.loc 1 459 0
 130 00a2 0020     		movs	r0, #0
 131              	.LVL4:
 132 00a4 F0BC     		pop	{r4, r5, r6, r7}
 133              	.LCFI1:
 134              		.cfi_remember_state
 135              		.cfi_restore 7
 136              		.cfi_restore 6
 137              		.cfi_restore 5
 138              		.cfi_restore 4
 139              		.cfi_def_cfa_offset 0
 140 00a6 7047     		bx	lr
 141              	.LVL5:
 142              	.L10:
 143              	.LCFI2:
 144              		.cfi_restore_state
 413:Drivers/STM32F1xx_HAL_Driver/Src/stm32f1xx_hal_can.c ****     /* 32-bit identifier or First 32-bit identifier */
 145              		.loc 1 413 0
 146 00a8 0568     		ldr	r5, [r0]
 147 00aa D5F80C42 		ldr	r4, [r5, #524]
 148 00ae 1443     		orrs	r4, r4, r2
 149 00b0 C5F80C42 		str	r4, [r5, #524]
 415:Drivers/STM32F1xx_HAL_Driver/Src/stm32f1xx_hal_can.c ****        ((0x0000FFFFU & (uint32_t)sFilterConfig->FilterIdHigh) << 16U) |
 150              		.loc 1 415 0
 151 00b4 0668     		ldr	r6, [r0]
 152 00b6 4C69     		ldr	r4, [r1, #20]
 416:Drivers/STM32F1xx_HAL_Driver/Src/stm32f1xx_hal_can.c ****         (0x0000FFFFU & (uint32_t)sFilterConfig->FilterIdLow);
 153              		.loc 1 416 0
 154 00b8 0F68     		ldr	r7, [r1]
 417:Drivers/STM32F1xx_HAL_Driver/Src/stm32f1xx_hal_can.c ****     /* 32-bit mask or Second 32-bit identifier */
 155              		.loc 1 417 0
 156 00ba 8D88     		ldrh	r5, [r1, #4]
 416:Drivers/STM32F1xx_HAL_Driver/Src/stm32f1xx_hal_can.c ****         (0x0000FFFFU & (uint32_t)sFilterConfig->FilterIdLow);
 157              		.loc 1 416 0
 158 00bc 45EA0745 		orr	r5, r5, r7, lsl #16
 415:Drivers/STM32F1xx_HAL_Driver/Src/stm32f1xx_hal_can.c ****        ((0x0000FFFFU & (uint32_t)sFilterConfig->FilterIdHigh) << 16U) |
 159              		.loc 1 415 0
ARM GAS  /tmp/cc4XmUnq.s 			page 12


 160 00c0 4834     		adds	r4, r4, #72
 161 00c2 46F83450 		str	r5, [r6, r4, lsl #3]
 419:Drivers/STM32F1xx_HAL_Driver/Src/stm32f1xx_hal_can.c ****        ((0x0000FFFFU & (uint32_t)sFilterConfig->FilterMaskIdHigh) << 16U) |
 162              		.loc 1 419 0
 163 00c6 0468     		ldr	r4, [r0]
 164 00c8 4E69     		ldr	r6, [r1, #20]
 420:Drivers/STM32F1xx_HAL_Driver/Src/stm32f1xx_hal_can.c ****         (0x0000FFFFU & (uint32_t)sFilterConfig->FilterMaskIdLow);
 165              		.loc 1 420 0
 166 00ca 8F68     		ldr	r7, [r1, #8]
 421:Drivers/STM32F1xx_HAL_Driver/Src/stm32f1xx_hal_can.c ****   }
 167              		.loc 1 421 0
 168 00cc 8D89     		ldrh	r5, [r1, #12]
 420:Drivers/STM32F1xx_HAL_Driver/Src/stm32f1xx_hal_can.c ****         (0x0000FFFFU & (uint32_t)sFilterConfig->FilterMaskIdLow);
 169              		.loc 1 420 0
 170 00ce 45EA0745 		orr	r5, r5, r7, lsl #16
 419:Drivers/STM32F1xx_HAL_Driver/Src/stm32f1xx_hal_can.c ****        ((0x0000FFFFU & (uint32_t)sFilterConfig->FilterMaskIdHigh) << 16U) |
 171              		.loc 1 419 0
 172 00d2 4836     		adds	r6, r6, #72
 173 00d4 04EBC604 		add	r4, r4, r6, lsl #3
 174 00d8 6560     		str	r5, [r4, #4]
 175 00da C6E7     		b	.L3
 176              	.L4:
 433:Drivers/STM32F1xx_HAL_Driver/Src/stm32f1xx_hal_can.c ****   }
 177              		.loc 1 433 0
 178 00dc 0568     		ldr	r5, [r0]
 179 00de D5F80442 		ldr	r4, [r5, #516]
 180 00e2 1443     		orrs	r4, r4, r2
 181 00e4 C5F80442 		str	r4, [r5, #516]
 182 00e8 C8E7     		b	.L5
 183              	.L6:
 445:Drivers/STM32F1xx_HAL_Driver/Src/stm32f1xx_hal_can.c ****   }
 184              		.loc 1 445 0
 185 00ea 0468     		ldr	r4, [r0]
 186 00ec D4F81432 		ldr	r3, [r4, #532]
 187 00f0 1343     		orrs	r3, r3, r2
 188 00f2 C4F81432 		str	r3, [r4, #532]
 189 00f6 CAE7     		b	.L7
 190              	.L11:
 451:Drivers/STM32F1xx_HAL_Driver/Src/stm32f1xx_hal_can.c ****   }
 191              		.loc 1 451 0
 192 00f8 0368     		ldr	r3, [r0]
 193 00fa D3F81C12 		ldr	r1, [r3, #540]
 194              	.LVL6:
 195 00fe 0A43     		orrs	r2, r2, r1
 196              	.LVL7:
 197 0100 C3F81C22 		str	r2, [r3, #540]
 198 0104 C6E7     		b	.L8
 199              		.cfi_endproc
 200              	.LFE65:
 202              		.section	.text.HAL_CAN_MspInit,"ax",%progbits
 203              		.align	1
 204              		.weak	HAL_CAN_MspInit
 205              		.syntax unified
 206              		.thumb
 207              		.thumb_func
 208              		.fpu softvfp
 210              	HAL_CAN_MspInit:
ARM GAS  /tmp/cc4XmUnq.s 			page 13


 211              	.LFB67:
 460:Drivers/STM32F1xx_HAL_Driver/Src/stm32f1xx_hal_can.c **** 
 461:Drivers/STM32F1xx_HAL_Driver/Src/stm32f1xx_hal_can.c **** /**
 462:Drivers/STM32F1xx_HAL_Driver/Src/stm32f1xx_hal_can.c ****   * @brief  Deinitializes the CANx peripheral registers to their default reset values. 
 463:Drivers/STM32F1xx_HAL_Driver/Src/stm32f1xx_hal_can.c ****   * @param  hcan: pointer to a CAN_HandleTypeDef structure that contains
 464:Drivers/STM32F1xx_HAL_Driver/Src/stm32f1xx_hal_can.c ****   *         the configuration information for the specified CAN.  
 465:Drivers/STM32F1xx_HAL_Driver/Src/stm32f1xx_hal_can.c ****   * @retval HAL status
 466:Drivers/STM32F1xx_HAL_Driver/Src/stm32f1xx_hal_can.c ****   */
 467:Drivers/STM32F1xx_HAL_Driver/Src/stm32f1xx_hal_can.c **** HAL_StatusTypeDef HAL_CAN_DeInit(CAN_HandleTypeDef* hcan)
 468:Drivers/STM32F1xx_HAL_Driver/Src/stm32f1xx_hal_can.c **** {
 469:Drivers/STM32F1xx_HAL_Driver/Src/stm32f1xx_hal_can.c ****   /* Check CAN handle */
 470:Drivers/STM32F1xx_HAL_Driver/Src/stm32f1xx_hal_can.c ****   if(hcan == NULL)
 471:Drivers/STM32F1xx_HAL_Driver/Src/stm32f1xx_hal_can.c ****   {
 472:Drivers/STM32F1xx_HAL_Driver/Src/stm32f1xx_hal_can.c ****      return HAL_ERROR;
 473:Drivers/STM32F1xx_HAL_Driver/Src/stm32f1xx_hal_can.c ****   }
 474:Drivers/STM32F1xx_HAL_Driver/Src/stm32f1xx_hal_can.c ****   
 475:Drivers/STM32F1xx_HAL_Driver/Src/stm32f1xx_hal_can.c ****   /* Check the parameters */
 476:Drivers/STM32F1xx_HAL_Driver/Src/stm32f1xx_hal_can.c ****   assert_param(IS_CAN_ALL_INSTANCE(hcan->Instance));
 477:Drivers/STM32F1xx_HAL_Driver/Src/stm32f1xx_hal_can.c ****   
 478:Drivers/STM32F1xx_HAL_Driver/Src/stm32f1xx_hal_can.c ****   /* Change CAN state */
 479:Drivers/STM32F1xx_HAL_Driver/Src/stm32f1xx_hal_can.c ****   hcan->State = HAL_CAN_STATE_BUSY;
 480:Drivers/STM32F1xx_HAL_Driver/Src/stm32f1xx_hal_can.c ****   
 481:Drivers/STM32F1xx_HAL_Driver/Src/stm32f1xx_hal_can.c ****   /* DeInit the low level hardware */
 482:Drivers/STM32F1xx_HAL_Driver/Src/stm32f1xx_hal_can.c ****   HAL_CAN_MspDeInit(hcan);
 483:Drivers/STM32F1xx_HAL_Driver/Src/stm32f1xx_hal_can.c ****   
 484:Drivers/STM32F1xx_HAL_Driver/Src/stm32f1xx_hal_can.c ****   /* Change CAN state */
 485:Drivers/STM32F1xx_HAL_Driver/Src/stm32f1xx_hal_can.c ****   hcan->State = HAL_CAN_STATE_RESET;
 486:Drivers/STM32F1xx_HAL_Driver/Src/stm32f1xx_hal_can.c **** 
 487:Drivers/STM32F1xx_HAL_Driver/Src/stm32f1xx_hal_can.c ****   /* Release Lock */
 488:Drivers/STM32F1xx_HAL_Driver/Src/stm32f1xx_hal_can.c ****   __HAL_UNLOCK(hcan);
 489:Drivers/STM32F1xx_HAL_Driver/Src/stm32f1xx_hal_can.c **** 
 490:Drivers/STM32F1xx_HAL_Driver/Src/stm32f1xx_hal_can.c ****   /* Return function status */
 491:Drivers/STM32F1xx_HAL_Driver/Src/stm32f1xx_hal_can.c ****   return HAL_OK;
 492:Drivers/STM32F1xx_HAL_Driver/Src/stm32f1xx_hal_can.c **** }
 493:Drivers/STM32F1xx_HAL_Driver/Src/stm32f1xx_hal_can.c **** 
 494:Drivers/STM32F1xx_HAL_Driver/Src/stm32f1xx_hal_can.c **** /**
 495:Drivers/STM32F1xx_HAL_Driver/Src/stm32f1xx_hal_can.c ****   * @brief  Initializes the CAN MSP.
 496:Drivers/STM32F1xx_HAL_Driver/Src/stm32f1xx_hal_can.c ****   * @param  hcan: pointer to a CAN_HandleTypeDef structure that contains
 497:Drivers/STM32F1xx_HAL_Driver/Src/stm32f1xx_hal_can.c ****   *         the configuration information for the specified CAN.  
 498:Drivers/STM32F1xx_HAL_Driver/Src/stm32f1xx_hal_can.c ****   * @retval None
 499:Drivers/STM32F1xx_HAL_Driver/Src/stm32f1xx_hal_can.c ****   */
 500:Drivers/STM32F1xx_HAL_Driver/Src/stm32f1xx_hal_can.c **** __weak void HAL_CAN_MspInit(CAN_HandleTypeDef* hcan)
 501:Drivers/STM32F1xx_HAL_Driver/Src/stm32f1xx_hal_can.c **** {
 212              		.loc 1 501 0
 213              		.cfi_startproc
 214              		@ args = 0, pretend = 0, frame = 0
 215              		@ frame_needed = 0, uses_anonymous_args = 0
 216              		@ link register save eliminated.
 217              	.LVL8:
 218 0000 7047     		bx	lr
 219              		.cfi_endproc
 220              	.LFE67:
 222              		.section	.text.HAL_CAN_Init,"ax",%progbits
 223              		.align	1
 224              		.global	HAL_CAN_Init
 225              		.syntax unified
 226              		.thumb
ARM GAS  /tmp/cc4XmUnq.s 			page 14


 227              		.thumb_func
 228              		.fpu softvfp
 230              	HAL_CAN_Init:
 231              	.LFB64:
 172:Drivers/STM32F1xx_HAL_Driver/Src/stm32f1xx_hal_can.c ****   uint32_t status = CAN_INITSTATUS_FAILED;  /* Default init status */
 232              		.loc 1 172 0
 233              		.cfi_startproc
 234              		@ args = 0, pretend = 0, frame = 0
 235              		@ frame_needed = 0, uses_anonymous_args = 0
 236              	.LVL9:
 178:Drivers/STM32F1xx_HAL_Driver/Src/stm32f1xx_hal_can.c ****   {
 237              		.loc 1 178 0
 238 0000 0028     		cmp	r0, #0
 239 0002 00F09C80 		beq	.L33
 172:Drivers/STM32F1xx_HAL_Driver/Src/stm32f1xx_hal_can.c ****   uint32_t status = CAN_INITSTATUS_FAILED;  /* Default init status */
 240              		.loc 1 172 0
 241 0006 38B5     		push	{r3, r4, r5, lr}
 242              	.LCFI3:
 243              		.cfi_def_cfa_offset 16
 244              		.cfi_offset 3, -16
 245              		.cfi_offset 4, -12
 246              		.cfi_offset 5, -8
 247              		.cfi_offset 14, -4
 248 0008 0446     		mov	r4, r0
 197:Drivers/STM32F1xx_HAL_Driver/Src/stm32f1xx_hal_can.c ****   {
 249              		.loc 1 197 0
 250 000a 90F83C30 		ldrb	r3, [r0, #60]	@ zero_extendqisi2
 251 000e 03B3     		cbz	r3, .L41
 252              	.LVL10:
 253              	.L15:
 206:Drivers/STM32F1xx_HAL_Driver/Src/stm32f1xx_hal_can.c ****   
 254              		.loc 1 206 0
 255 0010 0223     		movs	r3, #2
 256 0012 84F83C30 		strb	r3, [r4, #60]
 209:Drivers/STM32F1xx_HAL_Driver/Src/stm32f1xx_hal_can.c **** 
 257              		.loc 1 209 0
 258 0016 2268     		ldr	r2, [r4]
 259 0018 1368     		ldr	r3, [r2]
 260 001a 23F00203 		bic	r3, r3, #2
 261 001e 1360     		str	r3, [r2]
 212:Drivers/STM32F1xx_HAL_Driver/Src/stm32f1xx_hal_can.c **** 
 262              		.loc 1 212 0
 263 0020 2268     		ldr	r2, [r4]
 264 0022 1368     		ldr	r3, [r2]
 265 0024 43F00103 		orr	r3, r3, #1
 266 0028 1360     		str	r3, [r2]
 215:Drivers/STM32F1xx_HAL_Driver/Src/stm32f1xx_hal_can.c ****   
 267              		.loc 1 215 0
 268 002a FFF7FEFF 		bl	HAL_GetTick
 269              	.LVL11:
 270 002e 0546     		mov	r5, r0
 271              	.LVL12:
 272              	.L16:
 218:Drivers/STM32F1xx_HAL_Driver/Src/stm32f1xx_hal_can.c ****   {
 273              		.loc 1 218 0
 274 0030 2368     		ldr	r3, [r4]
 275 0032 5A68     		ldr	r2, [r3, #4]
ARM GAS  /tmp/cc4XmUnq.s 			page 15


 276 0034 12F0010F 		tst	r2, #1
 277 0038 10D1     		bne	.L42
 220:Drivers/STM32F1xx_HAL_Driver/Src/stm32f1xx_hal_can.c ****     {
 278              		.loc 1 220 0
 279 003a FFF7FEFF 		bl	HAL_GetTick
 280              	.LVL13:
 281 003e 401B     		subs	r0, r0, r5
 282 0040 0A28     		cmp	r0, #10
 283 0042 F5D9     		bls	.L16
 222:Drivers/STM32F1xx_HAL_Driver/Src/stm32f1xx_hal_can.c ****       /* Process unlocked */
 284              		.loc 1 222 0
 285 0044 0320     		movs	r0, #3
 286 0046 84F83C00 		strb	r0, [r4, #60]
 224:Drivers/STM32F1xx_HAL_Driver/Src/stm32f1xx_hal_can.c ****       return HAL_TIMEOUT;
 287              		.loc 1 224 0
 288 004a 0023     		movs	r3, #0
 289 004c 84F83D30 		strb	r3, [r4, #61]
 225:Drivers/STM32F1xx_HAL_Driver/Src/stm32f1xx_hal_can.c ****     }
 290              		.loc 1 225 0
 291 0050 38BD     		pop	{r3, r4, r5, pc}
 292              	.LVL14:
 293              	.L41:
 200:Drivers/STM32F1xx_HAL_Driver/Src/stm32f1xx_hal_can.c ****     /* Init the low level hardware */
 294              		.loc 1 200 0
 295 0052 80F83D30 		strb	r3, [r0, #61]
 202:Drivers/STM32F1xx_HAL_Driver/Src/stm32f1xx_hal_can.c ****   }
 296              		.loc 1 202 0
 297 0056 FFF7FEFF 		bl	HAL_CAN_MspInit
 298              	.LVL15:
 299 005a D9E7     		b	.L15
 300              	.LVL16:
 301              	.L42:
 230:Drivers/STM32F1xx_HAL_Driver/Src/stm32f1xx_hal_can.c ****   {
 302              		.loc 1 230 0
 303 005c 5A68     		ldr	r2, [r3, #4]
 304 005e 12F0010F 		tst	r2, #1
 305 0062 5DD0     		beq	.L34
 233:Drivers/STM32F1xx_HAL_Driver/Src/stm32f1xx_hal_can.c ****     {
 306              		.loc 1 233 0
 307 0064 A269     		ldr	r2, [r4, #24]
 308 0066 012A     		cmp	r2, #1
 309 0068 43D0     		beq	.L43
 239:Drivers/STM32F1xx_HAL_Driver/Src/stm32f1xx_hal_can.c ****     }
 310              		.loc 1 239 0
 311 006a 0022     		movs	r2, #0
 312              	.L19:
 313              	.LVL17:
 243:Drivers/STM32F1xx_HAL_Driver/Src/stm32f1xx_hal_can.c ****     {
 314              		.loc 1 243 0
 315 006c E169     		ldr	r1, [r4, #28]
 316 006e 0129     		cmp	r1, #1
 317 0070 41D0     		beq	.L44
 249:Drivers/STM32F1xx_HAL_Driver/Src/stm32f1xx_hal_can.c ****     }
 318              		.loc 1 249 0
 319 0072 22F04002 		bic	r2, r2, #64
 320              	.LVL18:
 321              	.L21:
ARM GAS  /tmp/cc4XmUnq.s 			page 16


 253:Drivers/STM32F1xx_HAL_Driver/Src/stm32f1xx_hal_can.c ****     {
 322              		.loc 1 253 0
 323 0076 216A     		ldr	r1, [r4, #32]
 324 0078 0129     		cmp	r1, #1
 325 007a 3FD0     		beq	.L45
 259:Drivers/STM32F1xx_HAL_Driver/Src/stm32f1xx_hal_can.c ****     }
 326              		.loc 1 259 0
 327 007c 22F02002 		bic	r2, r2, #32
 328              	.LVL19:
 329              	.L23:
 262:Drivers/STM32F1xx_HAL_Driver/Src/stm32f1xx_hal_can.c ****     {
 330              		.loc 1 262 0
 331 0080 616A     		ldr	r1, [r4, #36]
 332 0082 0129     		cmp	r1, #1
 333 0084 3DD0     		beq	.L46
 268:Drivers/STM32F1xx_HAL_Driver/Src/stm32f1xx_hal_can.c ****     }
 334              		.loc 1 268 0
 335 0086 22F01002 		bic	r2, r2, #16
 336              	.LVL20:
 337              	.L25:
 272:Drivers/STM32F1xx_HAL_Driver/Src/stm32f1xx_hal_can.c ****     {
 338              		.loc 1 272 0
 339 008a A16A     		ldr	r1, [r4, #40]
 340 008c 0129     		cmp	r1, #1
 341 008e 3BD0     		beq	.L47
 278:Drivers/STM32F1xx_HAL_Driver/Src/stm32f1xx_hal_can.c ****     }
 342              		.loc 1 278 0
 343 0090 22F00802 		bic	r2, r2, #8
 344              	.LVL21:
 345              	.L27:
 281:Drivers/STM32F1xx_HAL_Driver/Src/stm32f1xx_hal_can.c ****     {
 346              		.loc 1 281 0
 347 0094 E16A     		ldr	r1, [r4, #44]
 348 0096 0129     		cmp	r1, #1
 349 0098 39D0     		beq	.L48
 287:Drivers/STM32F1xx_HAL_Driver/Src/stm32f1xx_hal_can.c ****     }
 350              		.loc 1 287 0
 351 009a 22F00402 		bic	r2, r2, #4
 352              	.LVL22:
 353              	.L29:
 291:Drivers/STM32F1xx_HAL_Driver/Src/stm32f1xx_hal_can.c ****                CAN_MCR_TTCM |
 354              		.loc 1 291 0
 355 009e 1968     		ldr	r1, [r3]
 356 00a0 21F0FC01 		bic	r1, r1, #252
 357 00a4 0A43     		orrs	r2, r2, r1
 358              	.LVL23:
 359 00a6 1A60     		str	r2, [r3]
 301:Drivers/STM32F1xx_HAL_Driver/Src/stm32f1xx_hal_can.c ****                                               hcan->Init.SJW            |
 360              		.loc 1 301 0
 361 00a8 2168     		ldr	r1, [r4]
 362 00aa A368     		ldr	r3, [r4, #8]
 363 00ac E268     		ldr	r2, [r4, #12]
 364 00ae 1343     		orrs	r3, r3, r2
 365 00b0 2269     		ldr	r2, [r4, #16]
 366 00b2 1343     		orrs	r3, r3, r2
 367 00b4 6269     		ldr	r2, [r4, #20]
 368 00b6 1343     		orrs	r3, r3, r2
ARM GAS  /tmp/cc4XmUnq.s 			page 17


 369 00b8 6268     		ldr	r2, [r4, #4]
 370 00ba 013A     		subs	r2, r2, #1
 371 00bc 1343     		orrs	r3, r3, r2
 372 00be CB61     		str	r3, [r1, #28]
 308:Drivers/STM32F1xx_HAL_Driver/Src/stm32f1xx_hal_can.c **** 
 373              		.loc 1 308 0
 374 00c0 2268     		ldr	r2, [r4]
 375 00c2 1368     		ldr	r3, [r2]
 376 00c4 23F00103 		bic	r3, r3, #1
 377 00c8 1360     		str	r3, [r2]
 311:Drivers/STM32F1xx_HAL_Driver/Src/stm32f1xx_hal_can.c ****    
 378              		.loc 1 311 0
 379 00ca FFF7FEFF 		bl	HAL_GetTick
 380              	.LVL24:
 381 00ce 0546     		mov	r5, r0
 382              	.LVL25:
 383              	.L30:
 314:Drivers/STM32F1xx_HAL_Driver/Src/stm32f1xx_hal_can.c ****     {
 384              		.loc 1 314 0
 385 00d0 2368     		ldr	r3, [r4]
 386 00d2 5A68     		ldr	r2, [r3, #4]
 387 00d4 12F0010F 		tst	r2, #1
 388 00d8 1CD0     		beq	.L49
 316:Drivers/STM32F1xx_HAL_Driver/Src/stm32f1xx_hal_can.c ****       {
 389              		.loc 1 316 0
 390 00da FFF7FEFF 		bl	HAL_GetTick
 391              	.LVL26:
 392 00de 401B     		subs	r0, r0, r5
 393 00e0 0A28     		cmp	r0, #10
 394 00e2 F5D9     		bls	.L30
 318:Drivers/STM32F1xx_HAL_Driver/Src/stm32f1xx_hal_can.c **** 
 395              		.loc 1 318 0
 396 00e4 0320     		movs	r0, #3
 397 00e6 84F83C00 		strb	r0, [r4, #60]
 321:Drivers/STM32F1xx_HAL_Driver/Src/stm32f1xx_hal_can.c **** 
 398              		.loc 1 321 0
 399 00ea 0023     		movs	r3, #0
 400 00ec 84F83D30 		strb	r3, [r4, #61]
 323:Drivers/STM32F1xx_HAL_Driver/Src/stm32f1xx_hal_can.c ****       }
 401              		.loc 1 323 0
 402 00f0 38BD     		pop	{r3, r4, r5, pc}
 403              	.LVL27:
 404              	.L43:
 235:Drivers/STM32F1xx_HAL_Driver/Src/stm32f1xx_hal_can.c ****     }
 405              		.loc 1 235 0
 406 00f2 8022     		movs	r2, #128
 407 00f4 BAE7     		b	.L19
 408              	.LVL28:
 409              	.L44:
 245:Drivers/STM32F1xx_HAL_Driver/Src/stm32f1xx_hal_can.c ****     }
 410              		.loc 1 245 0
 411 00f6 42F04002 		orr	r2, r2, #64
 412              	.LVL29:
 413 00fa BCE7     		b	.L21
 414              	.L45:
 255:Drivers/STM32F1xx_HAL_Driver/Src/stm32f1xx_hal_can.c ****     }
 415              		.loc 1 255 0
ARM GAS  /tmp/cc4XmUnq.s 			page 18


 416 00fc 42F02002 		orr	r2, r2, #32
 417              	.LVL30:
 418 0100 BEE7     		b	.L23
 419              	.L46:
 264:Drivers/STM32F1xx_HAL_Driver/Src/stm32f1xx_hal_can.c ****     }
 420              		.loc 1 264 0
 421 0102 42F01002 		orr	r2, r2, #16
 422              	.LVL31:
 423 0106 C0E7     		b	.L25
 424              	.L47:
 274:Drivers/STM32F1xx_HAL_Driver/Src/stm32f1xx_hal_can.c ****     }
 425              		.loc 1 274 0
 426 0108 42F00802 		orr	r2, r2, #8
 427              	.LVL32:
 428 010c C2E7     		b	.L27
 429              	.L48:
 283:Drivers/STM32F1xx_HAL_Driver/Src/stm32f1xx_hal_can.c ****     }
 430              		.loc 1 283 0
 431 010e 42F00402 		orr	r2, r2, #4
 432              	.LVL33:
 433 0112 C4E7     		b	.L29
 434              	.LVL34:
 435              	.L49:
 328:Drivers/STM32F1xx_HAL_Driver/Src/stm32f1xx_hal_can.c ****     {
 436              		.loc 1 328 0
 437 0114 5B68     		ldr	r3, [r3, #4]
 438 0116 13F0010F 		tst	r3, #1
 439 011a 08D0     		beq	.L36
 173:Drivers/STM32F1xx_HAL_Driver/Src/stm32f1xx_hal_can.c ****   uint32_t tickstart = 0U;
 440              		.loc 1 173 0
 441 011c 0023     		movs	r3, #0
 442 011e 00E0     		b	.L18
 443              	.LVL35:
 444              	.L34:
 445 0120 0023     		movs	r3, #0
 446              	.LVL36:
 447              	.L18:
 334:Drivers/STM32F1xx_HAL_Driver/Src/stm32f1xx_hal_can.c ****   {
 448              		.loc 1 334 0
 449 0122 33B9     		cbnz	r3, .L50
 348:Drivers/STM32F1xx_HAL_Driver/Src/stm32f1xx_hal_can.c **** 
 450              		.loc 1 348 0
 451 0124 0423     		movs	r3, #4
 452              	.LVL37:
 453 0126 84F83C30 		strb	r3, [r4, #60]
 351:Drivers/STM32F1xx_HAL_Driver/Src/stm32f1xx_hal_can.c ****   }
 454              		.loc 1 351 0
 455 012a 0120     		movs	r0, #1
 456 012c 38BD     		pop	{r3, r4, r5, pc}
 457              	.LVL38:
 458              	.L36:
 330:Drivers/STM32F1xx_HAL_Driver/Src/stm32f1xx_hal_can.c ****     }
 459              		.loc 1 330 0
 460 012e 0123     		movs	r3, #1
 461 0130 F7E7     		b	.L18
 462              	.LVL39:
 463              	.L50:
ARM GAS  /tmp/cc4XmUnq.s 			page 19


 337:Drivers/STM32F1xx_HAL_Driver/Src/stm32f1xx_hal_can.c ****     
 464              		.loc 1 337 0
 465 0132 0020     		movs	r0, #0
 466 0134 2064     		str	r0, [r4, #64]
 340:Drivers/STM32F1xx_HAL_Driver/Src/stm32f1xx_hal_can.c ****   
 467              		.loc 1 340 0
 468 0136 0123     		movs	r3, #1
 469              	.LVL40:
 470 0138 84F83C30 		strb	r3, [r4, #60]
 343:Drivers/STM32F1xx_HAL_Driver/Src/stm32f1xx_hal_can.c ****   }
 471              		.loc 1 343 0
 472 013c 38BD     		pop	{r3, r4, r5, pc}
 473              	.LVL41:
 474              	.L33:
 475              	.LCFI4:
 476              		.cfi_def_cfa_offset 0
 477              		.cfi_restore 3
 478              		.cfi_restore 4
 479              		.cfi_restore 5
 480              		.cfi_restore 14
 180:Drivers/STM32F1xx_HAL_Driver/Src/stm32f1xx_hal_can.c ****   }
 481              		.loc 1 180 0
 482 013e 0120     		movs	r0, #1
 483              	.LVL42:
 484 0140 7047     		bx	lr
 485              		.cfi_endproc
 486              	.LFE64:
 488              		.section	.text.HAL_CAN_MspDeInit,"ax",%progbits
 489              		.align	1
 490              		.weak	HAL_CAN_MspDeInit
 491              		.syntax unified
 492              		.thumb
 493              		.thumb_func
 494              		.fpu softvfp
 496              	HAL_CAN_MspDeInit:
 497              	.LFB68:
 502:Drivers/STM32F1xx_HAL_Driver/Src/stm32f1xx_hal_can.c ****   /* Prevent unused argument(s) compilation warning */
 503:Drivers/STM32F1xx_HAL_Driver/Src/stm32f1xx_hal_can.c ****   UNUSED(hcan);
 504:Drivers/STM32F1xx_HAL_Driver/Src/stm32f1xx_hal_can.c ****   /* NOTE : This function Should not be modified, when the callback is needed,
 505:Drivers/STM32F1xx_HAL_Driver/Src/stm32f1xx_hal_can.c ****             the HAL_CAN_MspInit can be implemented in the user file
 506:Drivers/STM32F1xx_HAL_Driver/Src/stm32f1xx_hal_can.c ****    */ 
 507:Drivers/STM32F1xx_HAL_Driver/Src/stm32f1xx_hal_can.c **** }
 508:Drivers/STM32F1xx_HAL_Driver/Src/stm32f1xx_hal_can.c **** 
 509:Drivers/STM32F1xx_HAL_Driver/Src/stm32f1xx_hal_can.c **** /**
 510:Drivers/STM32F1xx_HAL_Driver/Src/stm32f1xx_hal_can.c ****   * @brief  DeInitializes the CAN MSP.
 511:Drivers/STM32F1xx_HAL_Driver/Src/stm32f1xx_hal_can.c ****   * @param  hcan: pointer to a CAN_HandleTypeDef structure that contains
 512:Drivers/STM32F1xx_HAL_Driver/Src/stm32f1xx_hal_can.c ****   *         the configuration information for the specified CAN.  
 513:Drivers/STM32F1xx_HAL_Driver/Src/stm32f1xx_hal_can.c ****   * @retval None
 514:Drivers/STM32F1xx_HAL_Driver/Src/stm32f1xx_hal_can.c ****   */
 515:Drivers/STM32F1xx_HAL_Driver/Src/stm32f1xx_hal_can.c **** __weak void HAL_CAN_MspDeInit(CAN_HandleTypeDef* hcan)
 516:Drivers/STM32F1xx_HAL_Driver/Src/stm32f1xx_hal_can.c **** {
 498              		.loc 1 516 0
 499              		.cfi_startproc
 500              		@ args = 0, pretend = 0, frame = 0
 501              		@ frame_needed = 0, uses_anonymous_args = 0
 502              		@ link register save eliminated.
 503              	.LVL43:
ARM GAS  /tmp/cc4XmUnq.s 			page 20


 504 0000 7047     		bx	lr
 505              		.cfi_endproc
 506              	.LFE68:
 508              		.section	.text.HAL_CAN_DeInit,"ax",%progbits
 509              		.align	1
 510              		.global	HAL_CAN_DeInit
 511              		.syntax unified
 512              		.thumb
 513              		.thumb_func
 514              		.fpu softvfp
 516              	HAL_CAN_DeInit:
 517              	.LFB66:
 468:Drivers/STM32F1xx_HAL_Driver/Src/stm32f1xx_hal_can.c ****   /* Check CAN handle */
 518              		.loc 1 468 0
 519              		.cfi_startproc
 520              		@ args = 0, pretend = 0, frame = 0
 521              		@ frame_needed = 0, uses_anonymous_args = 0
 522              	.LVL44:
 470:Drivers/STM32F1xx_HAL_Driver/Src/stm32f1xx_hal_can.c ****   {
 523              		.loc 1 470 0
 524 0000 60B1     		cbz	r0, .L54
 468:Drivers/STM32F1xx_HAL_Driver/Src/stm32f1xx_hal_can.c ****   /* Check CAN handle */
 525              		.loc 1 468 0
 526 0002 10B5     		push	{r4, lr}
 527              	.LCFI5:
 528              		.cfi_def_cfa_offset 8
 529              		.cfi_offset 4, -8
 530              		.cfi_offset 14, -4
 531 0004 0446     		mov	r4, r0
 479:Drivers/STM32F1xx_HAL_Driver/Src/stm32f1xx_hal_can.c ****   
 532              		.loc 1 479 0
 533 0006 0223     		movs	r3, #2
 534 0008 80F83C30 		strb	r3, [r0, #60]
 482:Drivers/STM32F1xx_HAL_Driver/Src/stm32f1xx_hal_can.c ****   
 535              		.loc 1 482 0
 536 000c FFF7FEFF 		bl	HAL_CAN_MspDeInit
 537              	.LVL45:
 485:Drivers/STM32F1xx_HAL_Driver/Src/stm32f1xx_hal_can.c **** 
 538              		.loc 1 485 0
 539 0010 0020     		movs	r0, #0
 540 0012 84F83C00 		strb	r0, [r4, #60]
 488:Drivers/STM32F1xx_HAL_Driver/Src/stm32f1xx_hal_can.c **** 
 541              		.loc 1 488 0
 542 0016 84F83D00 		strb	r0, [r4, #61]
 491:Drivers/STM32F1xx_HAL_Driver/Src/stm32f1xx_hal_can.c **** }
 543              		.loc 1 491 0
 544 001a 10BD     		pop	{r4, pc}
 545              	.LVL46:
 546              	.L54:
 547              	.LCFI6:
 548              		.cfi_def_cfa_offset 0
 549              		.cfi_restore 4
 550              		.cfi_restore 14
 472:Drivers/STM32F1xx_HAL_Driver/Src/stm32f1xx_hal_can.c ****   }
 551              		.loc 1 472 0
 552 001c 0120     		movs	r0, #1
 553              	.LVL47:
ARM GAS  /tmp/cc4XmUnq.s 			page 21


 554 001e 7047     		bx	lr
 555              		.cfi_endproc
 556              	.LFE66:
 558              		.section	.text.HAL_CAN_Transmit,"ax",%progbits
 559              		.align	1
 560              		.global	HAL_CAN_Transmit
 561              		.syntax unified
 562              		.thumb
 563              		.thumb_func
 564              		.fpu softvfp
 566              	HAL_CAN_Transmit:
 567              	.LFB69:
 517:Drivers/STM32F1xx_HAL_Driver/Src/stm32f1xx_hal_can.c ****   /* Prevent unused argument(s) compilation warning */
 518:Drivers/STM32F1xx_HAL_Driver/Src/stm32f1xx_hal_can.c ****   UNUSED(hcan);
 519:Drivers/STM32F1xx_HAL_Driver/Src/stm32f1xx_hal_can.c ****   /* NOTE : This function Should not be modified, when the callback is needed,
 520:Drivers/STM32F1xx_HAL_Driver/Src/stm32f1xx_hal_can.c ****             the HAL_CAN_MspDeInit can be implemented in the user file
 521:Drivers/STM32F1xx_HAL_Driver/Src/stm32f1xx_hal_can.c ****    */ 
 522:Drivers/STM32F1xx_HAL_Driver/Src/stm32f1xx_hal_can.c **** }
 523:Drivers/STM32F1xx_HAL_Driver/Src/stm32f1xx_hal_can.c **** 
 524:Drivers/STM32F1xx_HAL_Driver/Src/stm32f1xx_hal_can.c **** /**
 525:Drivers/STM32F1xx_HAL_Driver/Src/stm32f1xx_hal_can.c ****   * @}
 526:Drivers/STM32F1xx_HAL_Driver/Src/stm32f1xx_hal_can.c ****   */
 527:Drivers/STM32F1xx_HAL_Driver/Src/stm32f1xx_hal_can.c **** 
 528:Drivers/STM32F1xx_HAL_Driver/Src/stm32f1xx_hal_can.c **** /** @defgroup CAN_Exported_Functions_Group2 Input and Output operation functions
 529:Drivers/STM32F1xx_HAL_Driver/Src/stm32f1xx_hal_can.c ****   *  @brief    I/O operation functions 
 530:Drivers/STM32F1xx_HAL_Driver/Src/stm32f1xx_hal_can.c ****   *
 531:Drivers/STM32F1xx_HAL_Driver/Src/stm32f1xx_hal_can.c **** @verbatim   
 532:Drivers/STM32F1xx_HAL_Driver/Src/stm32f1xx_hal_can.c ****   ==============================================================================
 533:Drivers/STM32F1xx_HAL_Driver/Src/stm32f1xx_hal_can.c ****                       ##### IO operation functions #####
 534:Drivers/STM32F1xx_HAL_Driver/Src/stm32f1xx_hal_can.c ****   ==============================================================================
 535:Drivers/STM32F1xx_HAL_Driver/Src/stm32f1xx_hal_can.c ****     [..]  This section provides functions allowing to:
 536:Drivers/STM32F1xx_HAL_Driver/Src/stm32f1xx_hal_can.c ****       (+) Transmit a CAN frame message.
 537:Drivers/STM32F1xx_HAL_Driver/Src/stm32f1xx_hal_can.c ****       (+) Receive a CAN frame message.
 538:Drivers/STM32F1xx_HAL_Driver/Src/stm32f1xx_hal_can.c ****       (+) Enter CAN peripheral in sleep mode. 
 539:Drivers/STM32F1xx_HAL_Driver/Src/stm32f1xx_hal_can.c ****       (+) Wake up the CAN peripheral from sleep mode.
 540:Drivers/STM32F1xx_HAL_Driver/Src/stm32f1xx_hal_can.c ****                
 541:Drivers/STM32F1xx_HAL_Driver/Src/stm32f1xx_hal_can.c **** @endverbatim
 542:Drivers/STM32F1xx_HAL_Driver/Src/stm32f1xx_hal_can.c ****   * @{
 543:Drivers/STM32F1xx_HAL_Driver/Src/stm32f1xx_hal_can.c ****   */
 544:Drivers/STM32F1xx_HAL_Driver/Src/stm32f1xx_hal_can.c **** 
 545:Drivers/STM32F1xx_HAL_Driver/Src/stm32f1xx_hal_can.c **** /**
 546:Drivers/STM32F1xx_HAL_Driver/Src/stm32f1xx_hal_can.c ****   * @brief  Initiates and transmits a CAN frame message.
 547:Drivers/STM32F1xx_HAL_Driver/Src/stm32f1xx_hal_can.c ****   * @param  hcan: pointer to a CAN_HandleTypeDef structure that contains
 548:Drivers/STM32F1xx_HAL_Driver/Src/stm32f1xx_hal_can.c ****   *         the configuration information for the specified CAN.  
 549:Drivers/STM32F1xx_HAL_Driver/Src/stm32f1xx_hal_can.c ****   * @param  Timeout: Specify Timeout value   
 550:Drivers/STM32F1xx_HAL_Driver/Src/stm32f1xx_hal_can.c ****   * @retval HAL status
 551:Drivers/STM32F1xx_HAL_Driver/Src/stm32f1xx_hal_can.c ****   */
 552:Drivers/STM32F1xx_HAL_Driver/Src/stm32f1xx_hal_can.c **** HAL_StatusTypeDef HAL_CAN_Transmit(CAN_HandleTypeDef* hcan, uint32_t Timeout)
 553:Drivers/STM32F1xx_HAL_Driver/Src/stm32f1xx_hal_can.c **** {
 568              		.loc 1 553 0
 569              		.cfi_startproc
 570              		@ args = 0, pretend = 0, frame = 0
 571              		@ frame_needed = 0, uses_anonymous_args = 0
 572              	.LVL48:
 573 0000 F8B5     		push	{r3, r4, r5, r6, r7, lr}
 574              	.LCFI7:
 575              		.cfi_def_cfa_offset 24
ARM GAS  /tmp/cc4XmUnq.s 			page 22


 576              		.cfi_offset 3, -24
 577              		.cfi_offset 4, -20
 578              		.cfi_offset 5, -16
 579              		.cfi_offset 6, -12
 580              		.cfi_offset 7, -8
 581              		.cfi_offset 14, -4
 582              	.LVL49:
 554:Drivers/STM32F1xx_HAL_Driver/Src/stm32f1xx_hal_can.c ****   uint32_t transmitmailbox = CAN_TXSTATUS_NOMAILBOX;
 555:Drivers/STM32F1xx_HAL_Driver/Src/stm32f1xx_hal_can.c ****   uint32_t tickstart = 0U;
 556:Drivers/STM32F1xx_HAL_Driver/Src/stm32f1xx_hal_can.c **** 
 557:Drivers/STM32F1xx_HAL_Driver/Src/stm32f1xx_hal_can.c ****   /* Check the parameters */
 558:Drivers/STM32F1xx_HAL_Driver/Src/stm32f1xx_hal_can.c ****   assert_param(IS_CAN_IDTYPE(hcan->pTxMsg->IDE));
 559:Drivers/STM32F1xx_HAL_Driver/Src/stm32f1xx_hal_can.c ****   assert_param(IS_CAN_RTR(hcan->pTxMsg->RTR));
 560:Drivers/STM32F1xx_HAL_Driver/Src/stm32f1xx_hal_can.c ****   assert_param(IS_CAN_DLC(hcan->pTxMsg->DLC));
 561:Drivers/STM32F1xx_HAL_Driver/Src/stm32f1xx_hal_can.c **** 
 562:Drivers/STM32F1xx_HAL_Driver/Src/stm32f1xx_hal_can.c ****   if(((hcan->Instance->TSR&CAN_TSR_TME0) == CAN_TSR_TME0) || \
 583              		.loc 1 562 0
 584 0002 0368     		ldr	r3, [r0]
 585 0004 9A68     		ldr	r2, [r3, #8]
 586 0006 12F0806F 		tst	r2, #67108864
 587 000a 08D1     		bne	.L60
 563:Drivers/STM32F1xx_HAL_Driver/Src/stm32f1xx_hal_can.c ****      ((hcan->Instance->TSR&CAN_TSR_TME1) == CAN_TSR_TME1) || \
 588              		.loc 1 563 0 discriminator 1
 589 000c 9A68     		ldr	r2, [r3, #8]
 562:Drivers/STM32F1xx_HAL_Driver/Src/stm32f1xx_hal_can.c ****      ((hcan->Instance->TSR&CAN_TSR_TME1) == CAN_TSR_TME1) || \
 590              		.loc 1 562 0 discriminator 1
 591 000e 12F0006F 		tst	r2, #134217728
 592 0012 04D1     		bne	.L60
 564:Drivers/STM32F1xx_HAL_Driver/Src/stm32f1xx_hal_can.c ****      ((hcan->Instance->TSR&CAN_TSR_TME2) == CAN_TSR_TME2))
 593              		.loc 1 564 0
 594 0014 9A68     		ldr	r2, [r3, #8]
 563:Drivers/STM32F1xx_HAL_Driver/Src/stm32f1xx_hal_can.c ****      ((hcan->Instance->TSR&CAN_TSR_TME1) == CAN_TSR_TME1) || \
 595              		.loc 1 563 0
 596 0016 12F0805F 		tst	r2, #268435456
 597 001a 00F0EC80 		beq	.L61
 598              	.L60:
 565:Drivers/STM32F1xx_HAL_Driver/Src/stm32f1xx_hal_can.c ****   {
 566:Drivers/STM32F1xx_HAL_Driver/Src/stm32f1xx_hal_can.c ****     /* Process locked */
 567:Drivers/STM32F1xx_HAL_Driver/Src/stm32f1xx_hal_can.c ****     __HAL_LOCK(hcan);
 599              		.loc 1 567 0
 600 001e 90F83D20 		ldrb	r2, [r0, #61]	@ zero_extendqisi2
 601 0022 012A     		cmp	r2, #1
 602 0024 00F0EC80 		beq	.L86
 603              		.loc 1 567 0 is_stmt 0 discriminator 2
 604 0028 0122     		movs	r2, #1
 605 002a 80F83D20 		strb	r2, [r0, #61]
 568:Drivers/STM32F1xx_HAL_Driver/Src/stm32f1xx_hal_can.c **** 
 569:Drivers/STM32F1xx_HAL_Driver/Src/stm32f1xx_hal_can.c ****     /* Change CAN state */
 570:Drivers/STM32F1xx_HAL_Driver/Src/stm32f1xx_hal_can.c ****     switch(hcan->State)
 606              		.loc 1 570 0 is_stmt 1 discriminator 2
 607 002e 90F83C20 		ldrb	r2, [r0, #60]	@ zero_extendqisi2
 608 0032 D2B2     		uxtb	r2, r2
 609 0034 322A     		cmp	r2, #50
 610 0036 14D0     		beq	.L64
 611 0038 622A     		cmp	r2, #98
 612 003a 16D0     		beq	.L65
 613 003c 222A     		cmp	r2, #34
ARM GAS  /tmp/cc4XmUnq.s 			page 23


 614 003e 03D0     		beq	.L92
 571:Drivers/STM32F1xx_HAL_Driver/Src/stm32f1xx_hal_can.c ****     {
 572:Drivers/STM32F1xx_HAL_Driver/Src/stm32f1xx_hal_can.c ****       case(HAL_CAN_STATE_BUSY_RX0):
 573:Drivers/STM32F1xx_HAL_Driver/Src/stm32f1xx_hal_can.c ****           hcan->State = HAL_CAN_STATE_BUSY_TX_RX0;
 574:Drivers/STM32F1xx_HAL_Driver/Src/stm32f1xx_hal_can.c ****           break;
 575:Drivers/STM32F1xx_HAL_Driver/Src/stm32f1xx_hal_can.c ****       case(HAL_CAN_STATE_BUSY_RX1):
 576:Drivers/STM32F1xx_HAL_Driver/Src/stm32f1xx_hal_can.c ****           hcan->State = HAL_CAN_STATE_BUSY_TX_RX1;
 577:Drivers/STM32F1xx_HAL_Driver/Src/stm32f1xx_hal_can.c ****           break;
 578:Drivers/STM32F1xx_HAL_Driver/Src/stm32f1xx_hal_can.c ****       case(HAL_CAN_STATE_BUSY_RX0_RX1):
 579:Drivers/STM32F1xx_HAL_Driver/Src/stm32f1xx_hal_can.c ****           hcan->State = HAL_CAN_STATE_BUSY_TX_RX0_RX1;
 580:Drivers/STM32F1xx_HAL_Driver/Src/stm32f1xx_hal_can.c ****           break;
 581:Drivers/STM32F1xx_HAL_Driver/Src/stm32f1xx_hal_can.c ****       default: /* HAL_CAN_STATE_READY */
 582:Drivers/STM32F1xx_HAL_Driver/Src/stm32f1xx_hal_can.c ****           hcan->State = HAL_CAN_STATE_BUSY_TX;
 615              		.loc 1 582 0
 616 0040 1222     		movs	r2, #18
 617 0042 80F83C20 		strb	r2, [r0, #60]
 583:Drivers/STM32F1xx_HAL_Driver/Src/stm32f1xx_hal_can.c ****           break;
 618              		.loc 1 583 0
 619 0046 02E0     		b	.L67
 620              	.L92:
 573:Drivers/STM32F1xx_HAL_Driver/Src/stm32f1xx_hal_can.c ****           break;
 621              		.loc 1 573 0
 622 0048 4222     		movs	r2, #66
 623 004a 80F83C20 		strb	r2, [r0, #60]
 624              	.L67:
 584:Drivers/STM32F1xx_HAL_Driver/Src/stm32f1xx_hal_can.c ****     }
 585:Drivers/STM32F1xx_HAL_Driver/Src/stm32f1xx_hal_can.c **** 
 586:Drivers/STM32F1xx_HAL_Driver/Src/stm32f1xx_hal_can.c ****     /* Select one empty transmit mailbox */
 587:Drivers/STM32F1xx_HAL_Driver/Src/stm32f1xx_hal_can.c ****     if (HAL_IS_BIT_SET(hcan->Instance->TSR, CAN_TSR_TME0))
 625              		.loc 1 587 0
 626 004e 9A68     		ldr	r2, [r3, #8]
 627 0050 12F0806F 		tst	r2, #67108864
 628 0054 0DD1     		bne	.L87
 588:Drivers/STM32F1xx_HAL_Driver/Src/stm32f1xx_hal_can.c ****     {
 589:Drivers/STM32F1xx_HAL_Driver/Src/stm32f1xx_hal_can.c ****       transmitmailbox = CAN_TXMAILBOX_0;
 590:Drivers/STM32F1xx_HAL_Driver/Src/stm32f1xx_hal_can.c ****     }
 591:Drivers/STM32F1xx_HAL_Driver/Src/stm32f1xx_hal_can.c ****     else if (HAL_IS_BIT_SET(hcan->Instance->TSR, CAN_TSR_TME1))
 629              		.loc 1 591 0
 630 0056 9A68     		ldr	r2, [r3, #8]
 631 0058 12F0006F 		tst	r2, #134217728
 632 005c 61D0     		beq	.L88
 592:Drivers/STM32F1xx_HAL_Driver/Src/stm32f1xx_hal_can.c ****     {
 593:Drivers/STM32F1xx_HAL_Driver/Src/stm32f1xx_hal_can.c ****       transmitmailbox = CAN_TXMAILBOX_1;
 633              		.loc 1 593 0
 634 005e 0125     		movs	r5, #1
 635 0060 08E0     		b	.L68
 636              	.L64:
 576:Drivers/STM32F1xx_HAL_Driver/Src/stm32f1xx_hal_can.c ****           break;
 637              		.loc 1 576 0
 638 0062 5222     		movs	r2, #82
 639 0064 80F83C20 		strb	r2, [r0, #60]
 577:Drivers/STM32F1xx_HAL_Driver/Src/stm32f1xx_hal_can.c ****       case(HAL_CAN_STATE_BUSY_RX0_RX1):
 640              		.loc 1 577 0
 641 0068 F1E7     		b	.L67
 642              	.L65:
 579:Drivers/STM32F1xx_HAL_Driver/Src/stm32f1xx_hal_can.c ****           break;
 643              		.loc 1 579 0
ARM GAS  /tmp/cc4XmUnq.s 			page 24


 644 006a 7222     		movs	r2, #114
 645 006c 80F83C20 		strb	r2, [r0, #60]
 580:Drivers/STM32F1xx_HAL_Driver/Src/stm32f1xx_hal_can.c ****       default: /* HAL_CAN_STATE_READY */
 646              		.loc 1 580 0
 647 0070 EDE7     		b	.L67
 648              	.L87:
 589:Drivers/STM32F1xx_HAL_Driver/Src/stm32f1xx_hal_can.c ****     }
 649              		.loc 1 589 0
 650 0072 0025     		movs	r5, #0
 651              	.L68:
 652              	.LVL50:
 594:Drivers/STM32F1xx_HAL_Driver/Src/stm32f1xx_hal_can.c ****     }
 595:Drivers/STM32F1xx_HAL_Driver/Src/stm32f1xx_hal_can.c ****     else
 596:Drivers/STM32F1xx_HAL_Driver/Src/stm32f1xx_hal_can.c ****     {
 597:Drivers/STM32F1xx_HAL_Driver/Src/stm32f1xx_hal_can.c ****       transmitmailbox = CAN_TXMAILBOX_2;
 598:Drivers/STM32F1xx_HAL_Driver/Src/stm32f1xx_hal_can.c ****     }
 599:Drivers/STM32F1xx_HAL_Driver/Src/stm32f1xx_hal_can.c **** 
 600:Drivers/STM32F1xx_HAL_Driver/Src/stm32f1xx_hal_can.c ****     /* Set up the Id */
 601:Drivers/STM32F1xx_HAL_Driver/Src/stm32f1xx_hal_can.c ****     hcan->Instance->sTxMailBox[transmitmailbox].TIR &= CAN_TI0R_TXRQ;
 653              		.loc 1 601 0
 654 0074 05F11802 		add	r2, r5, #24
 655 0078 1201     		lsls	r2, r2, #4
 656 007a 9C58     		ldr	r4, [r3, r2]
 657 007c 04F00104 		and	r4, r4, #1
 658 0080 9C50     		str	r4, [r3, r2]
 602:Drivers/STM32F1xx_HAL_Driver/Src/stm32f1xx_hal_can.c ****     if (hcan->pTxMsg->IDE == CAN_ID_STD)
 659              		.loc 1 602 0
 660 0082 026B     		ldr	r2, [r0, #48]
 661 0084 9368     		ldr	r3, [r2, #8]
 662 0086 002B     		cmp	r3, #0
 663 0088 4DD1     		bne	.L69
 603:Drivers/STM32F1xx_HAL_Driver/Src/stm32f1xx_hal_can.c ****     {
 604:Drivers/STM32F1xx_HAL_Driver/Src/stm32f1xx_hal_can.c ****       assert_param(IS_CAN_STDID(hcan->pTxMsg->StdId));  
 605:Drivers/STM32F1xx_HAL_Driver/Src/stm32f1xx_hal_can.c ****       hcan->Instance->sTxMailBox[transmitmailbox].TIR |= ((hcan->pTxMsg->StdId << CAN_TI0R_STID_Pos
 664              		.loc 1 605 0
 665 008a 0668     		ldr	r6, [r0]
 666 008c 05F11803 		add	r3, r5, #24
 667 0090 1B01     		lsls	r3, r3, #4
 668 0092 F458     		ldr	r4, [r6, r3]
 669 0094 1768     		ldr	r7, [r2]
 606:Drivers/STM32F1xx_HAL_Driver/Src/stm32f1xx_hal_can.c ****                                                            hcan->pTxMsg->RTR);
 670              		.loc 1 606 0
 671 0096 D268     		ldr	r2, [r2, #12]
 605:Drivers/STM32F1xx_HAL_Driver/Src/stm32f1xx_hal_can.c ****                                                            hcan->pTxMsg->RTR);
 672              		.loc 1 605 0
 673 0098 42EA4752 		orr	r2, r2, r7, lsl #21
 674 009c 2243     		orrs	r2, r2, r4
 675 009e F250     		str	r2, [r6, r3]
 676              	.L70:
 677 00a0 0E46     		mov	r6, r1
 678 00a2 0446     		mov	r4, r0
 607:Drivers/STM32F1xx_HAL_Driver/Src/stm32f1xx_hal_can.c ****     }
 608:Drivers/STM32F1xx_HAL_Driver/Src/stm32f1xx_hal_can.c ****     else
 609:Drivers/STM32F1xx_HAL_Driver/Src/stm32f1xx_hal_can.c ****     {
 610:Drivers/STM32F1xx_HAL_Driver/Src/stm32f1xx_hal_can.c ****       assert_param(IS_CAN_EXTID(hcan->pTxMsg->ExtId));
 611:Drivers/STM32F1xx_HAL_Driver/Src/stm32f1xx_hal_can.c ****       hcan->Instance->sTxMailBox[transmitmailbox].TIR |= ((hcan->pTxMsg->ExtId << CAN_TI0R_EXID_Pos
 612:Drivers/STM32F1xx_HAL_Driver/Src/stm32f1xx_hal_can.c ****                                                            hcan->pTxMsg->IDE |
ARM GAS  /tmp/cc4XmUnq.s 			page 25


 613:Drivers/STM32F1xx_HAL_Driver/Src/stm32f1xx_hal_can.c ****                                                            hcan->pTxMsg->RTR);
 614:Drivers/STM32F1xx_HAL_Driver/Src/stm32f1xx_hal_can.c ****     }
 615:Drivers/STM32F1xx_HAL_Driver/Src/stm32f1xx_hal_can.c **** 
 616:Drivers/STM32F1xx_HAL_Driver/Src/stm32f1xx_hal_can.c ****     /* Set up the DLC */
 617:Drivers/STM32F1xx_HAL_Driver/Src/stm32f1xx_hal_can.c ****     hcan->pTxMsg->DLC &= (uint8_t)0x0000000F;
 679              		.loc 1 617 0
 680 00a4 026B     		ldr	r2, [r0, #48]
 681 00a6 1369     		ldr	r3, [r2, #16]
 682 00a8 03F00F03 		and	r3, r3, #15
 683 00ac 1361     		str	r3, [r2, #16]
 618:Drivers/STM32F1xx_HAL_Driver/Src/stm32f1xx_hal_can.c ****     hcan->Instance->sTxMailBox[transmitmailbox].TDTR &= 0xFFFFFFF0U;
 684              		.loc 1 618 0
 685 00ae 0368     		ldr	r3, [r0]
 686 00b0 05F11801 		add	r1, r5, #24
 687              	.LVL51:
 688 00b4 0901     		lsls	r1, r1, #4
 689 00b6 0B44     		add	r3, r3, r1
 690 00b8 5A68     		ldr	r2, [r3, #4]
 691 00ba 22F00F02 		bic	r2, r2, #15
 692 00be 5A60     		str	r2, [r3, #4]
 619:Drivers/STM32F1xx_HAL_Driver/Src/stm32f1xx_hal_can.c ****     hcan->Instance->sTxMailBox[transmitmailbox].TDTR |= hcan->pTxMsg->DLC;
 693              		.loc 1 619 0
 694 00c0 0368     		ldr	r3, [r0]
 695 00c2 0B44     		add	r3, r3, r1
 696 00c4 5A68     		ldr	r2, [r3, #4]
 697 00c6 006B     		ldr	r0, [r0, #48]
 698              	.LVL52:
 699 00c8 0069     		ldr	r0, [r0, #16]
 700 00ca 0243     		orrs	r2, r2, r0
 701 00cc 5A60     		str	r2, [r3, #4]
 620:Drivers/STM32F1xx_HAL_Driver/Src/stm32f1xx_hal_can.c **** 
 621:Drivers/STM32F1xx_HAL_Driver/Src/stm32f1xx_hal_can.c ****     /* Set up the data field */
 622:Drivers/STM32F1xx_HAL_Driver/Src/stm32f1xx_hal_can.c ****     WRITE_REG(hcan->Instance->sTxMailBox[transmitmailbox].TDLR, ((uint32_t)hcan->pTxMsg->Data[3] <<
 702              		.loc 1 622 0
 703 00ce 2268     		ldr	r2, [r4]
 704 00d0 206B     		ldr	r0, [r4, #48]
 705 00d2 C77D     		ldrb	r7, [r0, #23]	@ zero_extendqisi2
 706 00d4 837D     		ldrb	r3, [r0, #22]	@ zero_extendqisi2
 707 00d6 1B04     		lsls	r3, r3, #16
 708 00d8 43EA0763 		orr	r3, r3, r7, lsl #24
 709 00dc 477D     		ldrb	r7, [r0, #21]	@ zero_extendqisi2
 710 00de 43EA0723 		orr	r3, r3, r7, lsl #8
 711 00e2 007D     		ldrb	r0, [r0, #20]	@ zero_extendqisi2
 712 00e4 0343     		orrs	r3, r3, r0
 713 00e6 2F01     		lsls	r7, r5, #4
 714 00e8 3A44     		add	r2, r2, r7
 715 00ea C2F88831 		str	r3, [r2, #392]
 623:Drivers/STM32F1xx_HAL_Driver/Src/stm32f1xx_hal_can.c ****                                                                 ((uint32_t)hcan->pTxMsg->Data[2] <<
 624:Drivers/STM32F1xx_HAL_Driver/Src/stm32f1xx_hal_can.c ****                                                                 ((uint32_t)hcan->pTxMsg->Data[1] <<
 625:Drivers/STM32F1xx_HAL_Driver/Src/stm32f1xx_hal_can.c ****                                                                 ((uint32_t)hcan->pTxMsg->Data[0] <<
 626:Drivers/STM32F1xx_HAL_Driver/Src/stm32f1xx_hal_can.c ****     WRITE_REG(hcan->Instance->sTxMailBox[transmitmailbox].TDHR, ((uint32_t)hcan->pTxMsg->Data[7] <<
 716              		.loc 1 626 0
 717 00ee 2268     		ldr	r2, [r4]
 718 00f0 206B     		ldr	r0, [r4, #48]
 719 00f2 90F81BE0 		ldrb	lr, [r0, #27]	@ zero_extendqisi2
 720 00f6 837E     		ldrb	r3, [r0, #26]	@ zero_extendqisi2
 721 00f8 1B04     		lsls	r3, r3, #16
ARM GAS  /tmp/cc4XmUnq.s 			page 26


 722 00fa 43EA0E63 		orr	r3, r3, lr, lsl #24
 723 00fe 90F819E0 		ldrb	lr, [r0, #25]	@ zero_extendqisi2
 724 0102 43EA0E23 		orr	r3, r3, lr, lsl #8
 725 0106 007E     		ldrb	r0, [r0, #24]	@ zero_extendqisi2
 726 0108 0343     		orrs	r3, r3, r0
 727 010a 3A44     		add	r2, r2, r7
 728 010c C2F88C31 		str	r3, [r2, #396]
 627:Drivers/STM32F1xx_HAL_Driver/Src/stm32f1xx_hal_can.c ****                                                                 ((uint32_t)hcan->pTxMsg->Data[6] <<
 628:Drivers/STM32F1xx_HAL_Driver/Src/stm32f1xx_hal_can.c ****                                                                 ((uint32_t)hcan->pTxMsg->Data[5] <<
 629:Drivers/STM32F1xx_HAL_Driver/Src/stm32f1xx_hal_can.c ****                                                                 ((uint32_t)hcan->pTxMsg->Data[4] <<
 630:Drivers/STM32F1xx_HAL_Driver/Src/stm32f1xx_hal_can.c ****     /* Request transmission */
 631:Drivers/STM32F1xx_HAL_Driver/Src/stm32f1xx_hal_can.c ****     SET_BIT(hcan->Instance->sTxMailBox[transmitmailbox].TIR, CAN_TI0R_TXRQ);
 729              		.loc 1 631 0
 730 0110 2268     		ldr	r2, [r4]
 731 0112 5358     		ldr	r3, [r2, r1]
 732 0114 43F00103 		orr	r3, r3, #1
 733 0118 5350     		str	r3, [r2, r1]
 632:Drivers/STM32F1xx_HAL_Driver/Src/stm32f1xx_hal_can.c **** 
 633:Drivers/STM32F1xx_HAL_Driver/Src/stm32f1xx_hal_can.c ****     /* Get tick */
 634:Drivers/STM32F1xx_HAL_Driver/Src/stm32f1xx_hal_can.c ****     tickstart = HAL_GetTick();
 734              		.loc 1 634 0
 735 011a FFF7FEFF 		bl	HAL_GetTick
 736              	.LVL53:
 737 011e 0746     		mov	r7, r0
 738              	.LVL54:
 635:Drivers/STM32F1xx_HAL_Driver/Src/stm32f1xx_hal_can.c **** 
 636:Drivers/STM32F1xx_HAL_Driver/Src/stm32f1xx_hal_can.c ****     /* Check End of transmission flag */
 637:Drivers/STM32F1xx_HAL_Driver/Src/stm32f1xx_hal_can.c ****     while(!(__HAL_CAN_TRANSMIT_STATUS(hcan, transmitmailbox)))
 739              		.loc 1 637 0
 740 0120 3BE0     		b	.L72
 741              	.LVL55:
 742              	.L88:
 597:Drivers/STM32F1xx_HAL_Driver/Src/stm32f1xx_hal_can.c ****     }
 743              		.loc 1 597 0
 744 0122 0225     		movs	r5, #2
 745 0124 A6E7     		b	.L68
 746              	.LVL56:
 747              	.L69:
 611:Drivers/STM32F1xx_HAL_Driver/Src/stm32f1xx_hal_can.c ****                                                            hcan->pTxMsg->IDE |
 748              		.loc 1 611 0
 749 0126 0768     		ldr	r7, [r0]
 750 0128 05F11804 		add	r4, r5, #24
 751 012c 2401     		lsls	r4, r4, #4
 752 012e 57F804E0 		ldr	lr, [r7, r4]
 753 0132 5668     		ldr	r6, [r2, #4]
 754 0134 43EAC603 		orr	r3, r3, r6, lsl #3
 613:Drivers/STM32F1xx_HAL_Driver/Src/stm32f1xx_hal_can.c ****     }
 755              		.loc 1 613 0
 756 0138 D268     		ldr	r2, [r2, #12]
 612:Drivers/STM32F1xx_HAL_Driver/Src/stm32f1xx_hal_can.c ****                                                            hcan->pTxMsg->RTR);
 757              		.loc 1 612 0
 758 013a 1343     		orrs	r3, r3, r2
 611:Drivers/STM32F1xx_HAL_Driver/Src/stm32f1xx_hal_can.c ****                                                            hcan->pTxMsg->IDE |
 759              		.loc 1 611 0
 760 013c 43EA0E03 		orr	r3, r3, lr
 761 0140 3B51     		str	r3, [r7, r4]
 762 0142 ADE7     		b	.L70
ARM GAS  /tmp/cc4XmUnq.s 			page 27


 763              	.LVL57:
 764              	.L96:
 638:Drivers/STM32F1xx_HAL_Driver/Src/stm32f1xx_hal_can.c ****     {
 639:Drivers/STM32F1xx_HAL_Driver/Src/stm32f1xx_hal_can.c ****       /* Check for the Timeout */
 640:Drivers/STM32F1xx_HAL_Driver/Src/stm32f1xx_hal_can.c ****       if(Timeout != HAL_MAX_DELAY)
 641:Drivers/STM32F1xx_HAL_Driver/Src/stm32f1xx_hal_can.c ****       {
 642:Drivers/STM32F1xx_HAL_Driver/Src/stm32f1xx_hal_can.c ****         if((Timeout == 0U) || ((HAL_GetTick()-tickstart) > Timeout))
 765              		.loc 1 642 0
 766 0144 26B1     		cbz	r6, .L73
 767              		.loc 1 642 0 is_stmt 0 discriminator 1
 768 0146 FFF7FEFF 		bl	HAL_GetTick
 769              	.LVL58:
 770 014a C01B     		subs	r0, r0, r7
 771 014c 8642     		cmp	r6, r0
 772 014e 24D2     		bcs	.L72
 773              	.L73:
 643:Drivers/STM32F1xx_HAL_Driver/Src/stm32f1xx_hal_can.c ****         {
 644:Drivers/STM32F1xx_HAL_Driver/Src/stm32f1xx_hal_can.c ****           hcan->State = HAL_CAN_STATE_TIMEOUT;
 774              		.loc 1 644 0 is_stmt 1
 775 0150 0323     		movs	r3, #3
 776 0152 84F83C30 		strb	r3, [r4, #60]
 645:Drivers/STM32F1xx_HAL_Driver/Src/stm32f1xx_hal_can.c **** 
 646:Drivers/STM32F1xx_HAL_Driver/Src/stm32f1xx_hal_can.c ****           /* Cancel transmission */
 647:Drivers/STM32F1xx_HAL_Driver/Src/stm32f1xx_hal_can.c ****           __HAL_CAN_CANCEL_TRANSMIT(hcan, transmitmailbox);
 777              		.loc 1 647 0
 778 0156 3DB9     		cbnz	r5, .L74
 779              		.loc 1 647 0 is_stmt 0 discriminator 1
 780 0158 2368     		ldr	r3, [r4]
 781 015a 8022     		movs	r2, #128
 782 015c 9A60     		str	r2, [r3, #8]
 783              	.L75:
 648:Drivers/STM32F1xx_HAL_Driver/Src/stm32f1xx_hal_can.c **** 
 649:Drivers/STM32F1xx_HAL_Driver/Src/stm32f1xx_hal_can.c ****           /* Process unlocked */
 650:Drivers/STM32F1xx_HAL_Driver/Src/stm32f1xx_hal_can.c ****           __HAL_UNLOCK(hcan);
 784              		.loc 1 650 0 is_stmt 1
 785 015e 0023     		movs	r3, #0
 786 0160 84F83D30 		strb	r3, [r4, #61]
 651:Drivers/STM32F1xx_HAL_Driver/Src/stm32f1xx_hal_can.c ****           return HAL_TIMEOUT;
 787              		.loc 1 651 0
 788 0164 0320     		movs	r0, #3
 789 0166 F8BD     		pop	{r3, r4, r5, r6, r7, pc}
 790              	.LVL59:
 791              	.L74:
 647:Drivers/STM32F1xx_HAL_Driver/Src/stm32f1xx_hal_can.c **** 
 792              		.loc 1 647 0 discriminator 2
 793 0168 012D     		cmp	r5, #1
 794 016a 04D0     		beq	.L93
 647:Drivers/STM32F1xx_HAL_Driver/Src/stm32f1xx_hal_can.c **** 
 795              		.loc 1 647 0 is_stmt 0 discriminator 4
 796 016c 2368     		ldr	r3, [r4]
 797 016e 4FF40002 		mov	r2, #8388608
 798 0172 9A60     		str	r2, [r3, #8]
 799 0174 F3E7     		b	.L75
 800              	.L93:
 647:Drivers/STM32F1xx_HAL_Driver/Src/stm32f1xx_hal_can.c **** 
 801              		.loc 1 647 0 discriminator 3
 802 0176 2368     		ldr	r3, [r4]
ARM GAS  /tmp/cc4XmUnq.s 			page 28


 803 0178 4FF40042 		mov	r2, #32768
 804 017c 9A60     		str	r2, [r3, #8]
 805 017e EEE7     		b	.L75
 806              	.L77:
 637:Drivers/STM32F1xx_HAL_Driver/Src/stm32f1xx_hal_can.c ****     {
 807              		.loc 1 637 0 is_stmt 1 discriminator 2
 808 0180 012D     		cmp	r5, #1
 809 0182 14D0     		beq	.L94
 637:Drivers/STM32F1xx_HAL_Driver/Src/stm32f1xx_hal_can.c ****     {
 810              		.loc 1 637 0 is_stmt 0 discriminator 5
 811 0184 2368     		ldr	r3, [r4]
 812 0186 9A68     		ldr	r2, [r3, #8]
 813 0188 1E4B     		ldr	r3, .L98
 814 018a 9343     		bics	r3, r3, r2
 815 018c 14BF     		ite	ne
 816 018e 0123     		movne	r3, #1
 817 0190 0023     		moveq	r3, #0
 818              	.L78:
 637:Drivers/STM32F1xx_HAL_Driver/Src/stm32f1xx_hal_can.c ****     {
 819              		.loc 1 637 0 discriminator 8
 820 0192 A3B1     		cbz	r3, .L95
 640:Drivers/STM32F1xx_HAL_Driver/Src/stm32f1xx_hal_can.c ****       {
 821              		.loc 1 640 0 is_stmt 1
 822 0194 B6F1FF3F 		cmp	r6, #-1
 823 0198 D4D1     		bne	.L96
 824              	.L72:
 637:Drivers/STM32F1xx_HAL_Driver/Src/stm32f1xx_hal_can.c ****     {
 825              		.loc 1 637 0
 826 019a 002D     		cmp	r5, #0
 827 019c F0D1     		bne	.L77
 637:Drivers/STM32F1xx_HAL_Driver/Src/stm32f1xx_hal_can.c ****     {
 828              		.loc 1 637 0 is_stmt 0 discriminator 1
 829 019e 2368     		ldr	r3, [r4]
 830 01a0 9A68     		ldr	r2, [r3, #8]
 831 01a2 194B     		ldr	r3, .L98+4
 832 01a4 9343     		bics	r3, r3, r2
 833 01a6 14BF     		ite	ne
 834 01a8 0123     		movne	r3, #1
 835 01aa 0023     		moveq	r3, #0
 836 01ac F1E7     		b	.L78
 837              	.L94:
 637:Drivers/STM32F1xx_HAL_Driver/Src/stm32f1xx_hal_can.c ****     {
 838              		.loc 1 637 0 discriminator 4
 839 01ae 2368     		ldr	r3, [r4]
 840 01b0 9A68     		ldr	r2, [r3, #8]
 841 01b2 164B     		ldr	r3, .L98+8
 842 01b4 9343     		bics	r3, r3, r2
 843 01b6 14BF     		ite	ne
 844 01b8 0123     		movne	r3, #1
 845 01ba 0023     		moveq	r3, #0
 846 01bc E9E7     		b	.L78
 847              	.L95:
 652:Drivers/STM32F1xx_HAL_Driver/Src/stm32f1xx_hal_can.c ****         }
 653:Drivers/STM32F1xx_HAL_Driver/Src/stm32f1xx_hal_can.c ****       }
 654:Drivers/STM32F1xx_HAL_Driver/Src/stm32f1xx_hal_can.c ****     }
 655:Drivers/STM32F1xx_HAL_Driver/Src/stm32f1xx_hal_can.c ****     /* Change CAN state */
 656:Drivers/STM32F1xx_HAL_Driver/Src/stm32f1xx_hal_can.c ****     switch(hcan->State)
ARM GAS  /tmp/cc4XmUnq.s 			page 29


 848              		.loc 1 656 0 is_stmt 1
 849 01be 94F83C30 		ldrb	r3, [r4, #60]	@ zero_extendqisi2
 850 01c2 DBB2     		uxtb	r3, r3
 851 01c4 522B     		cmp	r3, #82
 852 01c6 0ED0     		beq	.L82
 853 01c8 722B     		cmp	r3, #114
 854 01ca 10D0     		beq	.L83
 855 01cc 422B     		cmp	r3, #66
 856 01ce 03D0     		beq	.L97
 657:Drivers/STM32F1xx_HAL_Driver/Src/stm32f1xx_hal_can.c ****     {
 658:Drivers/STM32F1xx_HAL_Driver/Src/stm32f1xx_hal_can.c ****       case(HAL_CAN_STATE_BUSY_TX_RX0):
 659:Drivers/STM32F1xx_HAL_Driver/Src/stm32f1xx_hal_can.c ****           hcan->State = HAL_CAN_STATE_BUSY_RX0;
 660:Drivers/STM32F1xx_HAL_Driver/Src/stm32f1xx_hal_can.c ****           break;
 661:Drivers/STM32F1xx_HAL_Driver/Src/stm32f1xx_hal_can.c ****       case(HAL_CAN_STATE_BUSY_TX_RX1):
 662:Drivers/STM32F1xx_HAL_Driver/Src/stm32f1xx_hal_can.c ****           hcan->State = HAL_CAN_STATE_BUSY_RX1;
 663:Drivers/STM32F1xx_HAL_Driver/Src/stm32f1xx_hal_can.c ****           break;
 664:Drivers/STM32F1xx_HAL_Driver/Src/stm32f1xx_hal_can.c ****       case(HAL_CAN_STATE_BUSY_TX_RX0_RX1):
 665:Drivers/STM32F1xx_HAL_Driver/Src/stm32f1xx_hal_can.c ****           hcan->State = HAL_CAN_STATE_BUSY_RX0_RX1;
 666:Drivers/STM32F1xx_HAL_Driver/Src/stm32f1xx_hal_can.c ****           break;
 667:Drivers/STM32F1xx_HAL_Driver/Src/stm32f1xx_hal_can.c ****       default: /* HAL_CAN_STATE_BUSY_TX */
 668:Drivers/STM32F1xx_HAL_Driver/Src/stm32f1xx_hal_can.c ****           hcan->State = HAL_CAN_STATE_READY;
 857              		.loc 1 668 0
 858 01d0 0123     		movs	r3, #1
 859 01d2 84F83C30 		strb	r3, [r4, #60]
 669:Drivers/STM32F1xx_HAL_Driver/Src/stm32f1xx_hal_can.c ****           break;
 860              		.loc 1 669 0
 861 01d6 02E0     		b	.L85
 862              	.L97:
 659:Drivers/STM32F1xx_HAL_Driver/Src/stm32f1xx_hal_can.c ****           break;
 863              		.loc 1 659 0
 864 01d8 2223     		movs	r3, #34
 865 01da 84F83C30 		strb	r3, [r4, #60]
 866              	.L85:
 670:Drivers/STM32F1xx_HAL_Driver/Src/stm32f1xx_hal_can.c ****     }
 671:Drivers/STM32F1xx_HAL_Driver/Src/stm32f1xx_hal_can.c **** 
 672:Drivers/STM32F1xx_HAL_Driver/Src/stm32f1xx_hal_can.c ****     /* Process unlocked */
 673:Drivers/STM32F1xx_HAL_Driver/Src/stm32f1xx_hal_can.c ****     __HAL_UNLOCK(hcan);
 867              		.loc 1 673 0
 868 01de 0020     		movs	r0, #0
 869 01e0 84F83D00 		strb	r0, [r4, #61]
 674:Drivers/STM32F1xx_HAL_Driver/Src/stm32f1xx_hal_can.c **** 
 675:Drivers/STM32F1xx_HAL_Driver/Src/stm32f1xx_hal_can.c ****     /* Return function status */
 676:Drivers/STM32F1xx_HAL_Driver/Src/stm32f1xx_hal_can.c ****     return HAL_OK;
 870              		.loc 1 676 0
 871 01e4 F8BD     		pop	{r3, r4, r5, r6, r7, pc}
 872              	.LVL60:
 873              	.L82:
 662:Drivers/STM32F1xx_HAL_Driver/Src/stm32f1xx_hal_can.c ****           break;
 874              		.loc 1 662 0
 875 01e6 3223     		movs	r3, #50
 876 01e8 84F83C30 		strb	r3, [r4, #60]
 663:Drivers/STM32F1xx_HAL_Driver/Src/stm32f1xx_hal_can.c ****       case(HAL_CAN_STATE_BUSY_TX_RX0_RX1):
 877              		.loc 1 663 0
 878 01ec F7E7     		b	.L85
 879              	.L83:
 665:Drivers/STM32F1xx_HAL_Driver/Src/stm32f1xx_hal_can.c ****           break;
 880              		.loc 1 665 0
ARM GAS  /tmp/cc4XmUnq.s 			page 30


 881 01ee 6223     		movs	r3, #98
 882 01f0 84F83C30 		strb	r3, [r4, #60]
 666:Drivers/STM32F1xx_HAL_Driver/Src/stm32f1xx_hal_can.c ****       default: /* HAL_CAN_STATE_BUSY_TX */
 883              		.loc 1 666 0
 884 01f4 F3E7     		b	.L85
 885              	.LVL61:
 886              	.L61:
 677:Drivers/STM32F1xx_HAL_Driver/Src/stm32f1xx_hal_can.c ****   }
 678:Drivers/STM32F1xx_HAL_Driver/Src/stm32f1xx_hal_can.c ****   else
 679:Drivers/STM32F1xx_HAL_Driver/Src/stm32f1xx_hal_can.c ****   {
 680:Drivers/STM32F1xx_HAL_Driver/Src/stm32f1xx_hal_can.c ****     /* Change CAN state */
 681:Drivers/STM32F1xx_HAL_Driver/Src/stm32f1xx_hal_can.c ****     hcan->State = HAL_CAN_STATE_ERROR;
 887              		.loc 1 681 0
 888 01f6 0423     		movs	r3, #4
 889 01f8 80F83C30 		strb	r3, [r0, #60]
 682:Drivers/STM32F1xx_HAL_Driver/Src/stm32f1xx_hal_can.c **** 
 683:Drivers/STM32F1xx_HAL_Driver/Src/stm32f1xx_hal_can.c ****     /* Return function status */
 684:Drivers/STM32F1xx_HAL_Driver/Src/stm32f1xx_hal_can.c ****     return HAL_ERROR;
 890              		.loc 1 684 0
 891 01fc 0120     		movs	r0, #1
 892              	.LVL62:
 893 01fe F8BD     		pop	{r3, r4, r5, r6, r7, pc}
 894              	.LVL63:
 895              	.L86:
 567:Drivers/STM32F1xx_HAL_Driver/Src/stm32f1xx_hal_can.c **** 
 896              		.loc 1 567 0
 897 0200 0220     		movs	r0, #2
 898              	.LVL64:
 685:Drivers/STM32F1xx_HAL_Driver/Src/stm32f1xx_hal_can.c ****   }
 686:Drivers/STM32F1xx_HAL_Driver/Src/stm32f1xx_hal_can.c **** }
 899              		.loc 1 686 0
 900 0202 F8BD     		pop	{r3, r4, r5, r6, r7, pc}
 901              	.L99:
 902              		.align	2
 903              	.L98:
 904 0204 00000110 		.word	268500992
 905 0208 01000004 		.word	67108865
 906 020c 00010008 		.word	134217984
 907              		.cfi_endproc
 908              	.LFE69:
 910              		.section	.text.HAL_CAN_Transmit_IT,"ax",%progbits
 911              		.align	1
 912              		.global	HAL_CAN_Transmit_IT
 913              		.syntax unified
 914              		.thumb
 915              		.thumb_func
 916              		.fpu softvfp
 918              	HAL_CAN_Transmit_IT:
 919              	.LFB70:
 687:Drivers/STM32F1xx_HAL_Driver/Src/stm32f1xx_hal_can.c **** 
 688:Drivers/STM32F1xx_HAL_Driver/Src/stm32f1xx_hal_can.c **** /**
 689:Drivers/STM32F1xx_HAL_Driver/Src/stm32f1xx_hal_can.c ****   * @brief  Initiates and transmits a CAN frame message.
 690:Drivers/STM32F1xx_HAL_Driver/Src/stm32f1xx_hal_can.c ****   * @param  hcan: pointer to a CAN_HandleTypeDef structure that contains
 691:Drivers/STM32F1xx_HAL_Driver/Src/stm32f1xx_hal_can.c ****   *         the configuration information for the specified CAN.  
 692:Drivers/STM32F1xx_HAL_Driver/Src/stm32f1xx_hal_can.c ****   * @retval HAL status
 693:Drivers/STM32F1xx_HAL_Driver/Src/stm32f1xx_hal_can.c ****   */
 694:Drivers/STM32F1xx_HAL_Driver/Src/stm32f1xx_hal_can.c **** HAL_StatusTypeDef HAL_CAN_Transmit_IT(CAN_HandleTypeDef* hcan)
ARM GAS  /tmp/cc4XmUnq.s 			page 31


 695:Drivers/STM32F1xx_HAL_Driver/Src/stm32f1xx_hal_can.c **** {
 920              		.loc 1 695 0
 921              		.cfi_startproc
 922              		@ args = 0, pretend = 0, frame = 0
 923              		@ frame_needed = 0, uses_anonymous_args = 0
 924              		@ link register save eliminated.
 925              	.LVL65:
 696:Drivers/STM32F1xx_HAL_Driver/Src/stm32f1xx_hal_can.c ****   uint32_t transmitmailbox = CAN_TXSTATUS_NOMAILBOX;
 697:Drivers/STM32F1xx_HAL_Driver/Src/stm32f1xx_hal_can.c **** 
 698:Drivers/STM32F1xx_HAL_Driver/Src/stm32f1xx_hal_can.c ****   /* Check the parameters */
 699:Drivers/STM32F1xx_HAL_Driver/Src/stm32f1xx_hal_can.c ****   assert_param(IS_CAN_IDTYPE(hcan->pTxMsg->IDE));
 700:Drivers/STM32F1xx_HAL_Driver/Src/stm32f1xx_hal_can.c ****   assert_param(IS_CAN_RTR(hcan->pTxMsg->RTR));
 701:Drivers/STM32F1xx_HAL_Driver/Src/stm32f1xx_hal_can.c ****   assert_param(IS_CAN_DLC(hcan->pTxMsg->DLC));
 702:Drivers/STM32F1xx_HAL_Driver/Src/stm32f1xx_hal_can.c ****   
 703:Drivers/STM32F1xx_HAL_Driver/Src/stm32f1xx_hal_can.c ****   if(((hcan->Instance->TSR&CAN_TSR_TME0) == CAN_TSR_TME0) || \
 926              		.loc 1 703 0
 927 0000 0268     		ldr	r2, [r0]
 928 0002 9368     		ldr	r3, [r2, #8]
 929 0004 13F0806F 		tst	r3, #67108864
 930 0008 08D1     		bne	.L101
 704:Drivers/STM32F1xx_HAL_Driver/Src/stm32f1xx_hal_can.c ****      ((hcan->Instance->TSR&CAN_TSR_TME1) == CAN_TSR_TME1) || \
 931              		.loc 1 704 0 discriminator 1
 932 000a 9368     		ldr	r3, [r2, #8]
 703:Drivers/STM32F1xx_HAL_Driver/Src/stm32f1xx_hal_can.c ****      ((hcan->Instance->TSR&CAN_TSR_TME1) == CAN_TSR_TME1) || \
 933              		.loc 1 703 0 discriminator 1
 934 000c 13F0006F 		tst	r3, #134217728
 935 0010 04D1     		bne	.L101
 705:Drivers/STM32F1xx_HAL_Driver/Src/stm32f1xx_hal_can.c ****      ((hcan->Instance->TSR&CAN_TSR_TME2) == CAN_TSR_TME2))
 936              		.loc 1 705 0
 937 0012 9368     		ldr	r3, [r2, #8]
 704:Drivers/STM32F1xx_HAL_Driver/Src/stm32f1xx_hal_can.c ****      ((hcan->Instance->TSR&CAN_TSR_TME1) == CAN_TSR_TME1) || \
 938              		.loc 1 704 0
 939 0014 13F0805F 		tst	r3, #268435456
 940 0018 00F09A80 		beq	.L102
 941              	.L101:
 706:Drivers/STM32F1xx_HAL_Driver/Src/stm32f1xx_hal_can.c ****   {
 707:Drivers/STM32F1xx_HAL_Driver/Src/stm32f1xx_hal_can.c ****     /* Process Locked */
 708:Drivers/STM32F1xx_HAL_Driver/Src/stm32f1xx_hal_can.c ****     __HAL_LOCK(hcan);
 942              		.loc 1 708 0
 943 001c 90F83D30 		ldrb	r3, [r0, #61]	@ zero_extendqisi2
 944 0020 012B     		cmp	r3, #1
 945 0022 00F09A80 		beq	.L112
 695:Drivers/STM32F1xx_HAL_Driver/Src/stm32f1xx_hal_can.c ****   uint32_t transmitmailbox = CAN_TXSTATUS_NOMAILBOX;
 946              		.loc 1 695 0 discriminator 2
 947 0026 F0B4     		push	{r4, r5, r6, r7}
 948              	.LCFI8:
 949              		.cfi_def_cfa_offset 16
 950              		.cfi_offset 4, -16
 951              		.cfi_offset 5, -12
 952              		.cfi_offset 6, -8
 953              		.cfi_offset 7, -4
 954              		.loc 1 708 0 discriminator 2
 955 0028 0123     		movs	r3, #1
 956 002a 80F83D30 		strb	r3, [r0, #61]
 709:Drivers/STM32F1xx_HAL_Driver/Src/stm32f1xx_hal_can.c ****     
 710:Drivers/STM32F1xx_HAL_Driver/Src/stm32f1xx_hal_can.c ****     /* Select one empty transmit mailbox */
 711:Drivers/STM32F1xx_HAL_Driver/Src/stm32f1xx_hal_can.c ****     if(HAL_IS_BIT_SET(hcan->Instance->TSR, CAN_TSR_TME0))
ARM GAS  /tmp/cc4XmUnq.s 			page 32


 957              		.loc 1 711 0 discriminator 2
 958 002e 9368     		ldr	r3, [r2, #8]
 959 0030 13F0806F 		tst	r3, #67108864
 960 0034 05D1     		bne	.L113
 712:Drivers/STM32F1xx_HAL_Driver/Src/stm32f1xx_hal_can.c ****     {
 713:Drivers/STM32F1xx_HAL_Driver/Src/stm32f1xx_hal_can.c ****       transmitmailbox = CAN_TXMAILBOX_0;
 714:Drivers/STM32F1xx_HAL_Driver/Src/stm32f1xx_hal_can.c ****     }
 715:Drivers/STM32F1xx_HAL_Driver/Src/stm32f1xx_hal_can.c ****     else if(HAL_IS_BIT_SET(hcan->Instance->TSR, CAN_TSR_TME1))
 961              		.loc 1 715 0
 962 0036 9368     		ldr	r3, [r2, #8]
 963 0038 13F0006F 		tst	r3, #134217728
 964 003c 59D0     		beq	.L114
 716:Drivers/STM32F1xx_HAL_Driver/Src/stm32f1xx_hal_can.c ****     {
 717:Drivers/STM32F1xx_HAL_Driver/Src/stm32f1xx_hal_can.c ****       transmitmailbox = CAN_TXMAILBOX_1;
 965              		.loc 1 717 0
 966 003e 0123     		movs	r3, #1
 967 0040 00E0     		b	.L104
 968              	.L113:
 713:Drivers/STM32F1xx_HAL_Driver/Src/stm32f1xx_hal_can.c ****     }
 969              		.loc 1 713 0
 970 0042 0023     		movs	r3, #0
 971              	.L104:
 972              	.LVL66:
 718:Drivers/STM32F1xx_HAL_Driver/Src/stm32f1xx_hal_can.c ****     }
 719:Drivers/STM32F1xx_HAL_Driver/Src/stm32f1xx_hal_can.c ****     else
 720:Drivers/STM32F1xx_HAL_Driver/Src/stm32f1xx_hal_can.c ****     {
 721:Drivers/STM32F1xx_HAL_Driver/Src/stm32f1xx_hal_can.c ****       transmitmailbox = CAN_TXMAILBOX_2;
 722:Drivers/STM32F1xx_HAL_Driver/Src/stm32f1xx_hal_can.c ****     }
 723:Drivers/STM32F1xx_HAL_Driver/Src/stm32f1xx_hal_can.c **** 
 724:Drivers/STM32F1xx_HAL_Driver/Src/stm32f1xx_hal_can.c ****     /* Set up the Id */
 725:Drivers/STM32F1xx_HAL_Driver/Src/stm32f1xx_hal_can.c ****     hcan->Instance->sTxMailBox[transmitmailbox].TIR &= CAN_TI0R_TXRQ;
 973              		.loc 1 725 0
 974 0044 03F11801 		add	r1, r3, #24
 975 0048 0901     		lsls	r1, r1, #4
 976 004a 5458     		ldr	r4, [r2, r1]
 977 004c 04F00104 		and	r4, r4, #1
 978 0050 5450     		str	r4, [r2, r1]
 726:Drivers/STM32F1xx_HAL_Driver/Src/stm32f1xx_hal_can.c ****     if(hcan->pTxMsg->IDE == CAN_ID_STD)
 979              		.loc 1 726 0
 980 0052 016B     		ldr	r1, [r0, #48]
 981 0054 8A68     		ldr	r2, [r1, #8]
 982 0056 002A     		cmp	r2, #0
 983 0058 4DD1     		bne	.L105
 727:Drivers/STM32F1xx_HAL_Driver/Src/stm32f1xx_hal_can.c ****     {
 728:Drivers/STM32F1xx_HAL_Driver/Src/stm32f1xx_hal_can.c ****       assert_param(IS_CAN_STDID(hcan->pTxMsg->StdId));
 729:Drivers/STM32F1xx_HAL_Driver/Src/stm32f1xx_hal_can.c ****       hcan->Instance->sTxMailBox[transmitmailbox].TIR |= ((hcan->pTxMsg->StdId << CAN_TI0R_STID_Pos
 984              		.loc 1 729 0
 985 005a 0568     		ldr	r5, [r0]
 986 005c 03F11802 		add	r2, r3, #24
 987 0060 1201     		lsls	r2, r2, #4
 988 0062 AC58     		ldr	r4, [r5, r2]
 989 0064 0E68     		ldr	r6, [r1]
 730:Drivers/STM32F1xx_HAL_Driver/Src/stm32f1xx_hal_can.c ****                                                            hcan->pTxMsg->RTR);
 990              		.loc 1 730 0
 991 0066 C968     		ldr	r1, [r1, #12]
 729:Drivers/STM32F1xx_HAL_Driver/Src/stm32f1xx_hal_can.c ****                                                            hcan->pTxMsg->RTR);
 992              		.loc 1 729 0
ARM GAS  /tmp/cc4XmUnq.s 			page 33


 993 0068 41EA4651 		orr	r1, r1, r6, lsl #21
 994 006c 2143     		orrs	r1, r1, r4
 995 006e A950     		str	r1, [r5, r2]
 996              	.L106:
 731:Drivers/STM32F1xx_HAL_Driver/Src/stm32f1xx_hal_can.c ****     }
 732:Drivers/STM32F1xx_HAL_Driver/Src/stm32f1xx_hal_can.c ****     else
 733:Drivers/STM32F1xx_HAL_Driver/Src/stm32f1xx_hal_can.c ****     {
 734:Drivers/STM32F1xx_HAL_Driver/Src/stm32f1xx_hal_can.c ****       assert_param(IS_CAN_EXTID(hcan->pTxMsg->ExtId));
 735:Drivers/STM32F1xx_HAL_Driver/Src/stm32f1xx_hal_can.c ****       hcan->Instance->sTxMailBox[transmitmailbox].TIR |= ((hcan->pTxMsg->ExtId << CAN_TI0R_EXID_Pos
 736:Drivers/STM32F1xx_HAL_Driver/Src/stm32f1xx_hal_can.c ****                                                            hcan->pTxMsg->IDE |
 737:Drivers/STM32F1xx_HAL_Driver/Src/stm32f1xx_hal_can.c ****                                                            hcan->pTxMsg->RTR);
 738:Drivers/STM32F1xx_HAL_Driver/Src/stm32f1xx_hal_can.c ****     }
 739:Drivers/STM32F1xx_HAL_Driver/Src/stm32f1xx_hal_can.c **** 
 740:Drivers/STM32F1xx_HAL_Driver/Src/stm32f1xx_hal_can.c ****     /* Set up the DLC */
 741:Drivers/STM32F1xx_HAL_Driver/Src/stm32f1xx_hal_can.c ****     hcan->pTxMsg->DLC &= (uint8_t)0x0000000FU;
 997              		.loc 1 741 0
 998 0070 016B     		ldr	r1, [r0, #48]
 999 0072 0A69     		ldr	r2, [r1, #16]
 1000 0074 02F00F02 		and	r2, r2, #15
 1001 0078 0A61     		str	r2, [r1, #16]
 742:Drivers/STM32F1xx_HAL_Driver/Src/stm32f1xx_hal_can.c ****     hcan->Instance->sTxMailBox[transmitmailbox].TDTR &= 0xFFFFFFF0U;
 1002              		.loc 1 742 0
 1003 007a 0468     		ldr	r4, [r0]
 1004 007c 03F11802 		add	r2, r3, #24
 1005 0080 1101     		lsls	r1, r2, #4
 1006 0082 6218     		adds	r2, r4, r1
 1007 0084 5468     		ldr	r4, [r2, #4]
 1008 0086 24F00F04 		bic	r4, r4, #15
 1009 008a 5460     		str	r4, [r2, #4]
 743:Drivers/STM32F1xx_HAL_Driver/Src/stm32f1xx_hal_can.c ****     hcan->Instance->sTxMailBox[transmitmailbox].TDTR |= hcan->pTxMsg->DLC;
 1010              		.loc 1 743 0
 1011 008c 0268     		ldr	r2, [r0]
 1012 008e 0A44     		add	r2, r2, r1
 1013 0090 5168     		ldr	r1, [r2, #4]
 1014 0092 046B     		ldr	r4, [r0, #48]
 1015 0094 2469     		ldr	r4, [r4, #16]
 1016 0096 2143     		orrs	r1, r1, r4
 1017 0098 5160     		str	r1, [r2, #4]
 744:Drivers/STM32F1xx_HAL_Driver/Src/stm32f1xx_hal_can.c **** 
 745:Drivers/STM32F1xx_HAL_Driver/Src/stm32f1xx_hal_can.c ****     /* Set up the data field */
 746:Drivers/STM32F1xx_HAL_Driver/Src/stm32f1xx_hal_can.c ****     WRITE_REG(hcan->Instance->sTxMailBox[transmitmailbox].TDLR, ((uint32_t)hcan->pTxMsg->Data[3U] <
 1018              		.loc 1 746 0
 1019 009a 0468     		ldr	r4, [r0]
 1020 009c 016B     		ldr	r1, [r0, #48]
 1021 009e CD7D     		ldrb	r5, [r1, #23]	@ zero_extendqisi2
 1022 00a0 8A7D     		ldrb	r2, [r1, #22]	@ zero_extendqisi2
 1023 00a2 1204     		lsls	r2, r2, #16
 1024 00a4 42EA0562 		orr	r2, r2, r5, lsl #24
 1025 00a8 4D7D     		ldrb	r5, [r1, #21]	@ zero_extendqisi2
 1026 00aa 42EA0522 		orr	r2, r2, r5, lsl #8
 1027 00ae 097D     		ldrb	r1, [r1, #20]	@ zero_extendqisi2
 1028 00b0 0A43     		orrs	r2, r2, r1
 1029 00b2 1D01     		lsls	r5, r3, #4
 1030 00b4 2C44     		add	r4, r4, r5
 1031 00b6 C4F88821 		str	r2, [r4, #392]
 747:Drivers/STM32F1xx_HAL_Driver/Src/stm32f1xx_hal_can.c ****                                                                 ((uint32_t)hcan->pTxMsg->Data[2U] <
 748:Drivers/STM32F1xx_HAL_Driver/Src/stm32f1xx_hal_can.c ****                                                                 ((uint32_t)hcan->pTxMsg->Data[1U] <
ARM GAS  /tmp/cc4XmUnq.s 			page 34


 749:Drivers/STM32F1xx_HAL_Driver/Src/stm32f1xx_hal_can.c ****                                                                 ((uint32_t)hcan->pTxMsg->Data[0U] <
 750:Drivers/STM32F1xx_HAL_Driver/Src/stm32f1xx_hal_can.c ****     WRITE_REG(hcan->Instance->sTxMailBox[transmitmailbox].TDHR, ((uint32_t)hcan->pTxMsg->Data[7U] <
 1032              		.loc 1 750 0
 1033 00ba 0168     		ldr	r1, [r0]
 1034 00bc 046B     		ldr	r4, [r0, #48]
 1035 00be E67E     		ldrb	r6, [r4, #27]	@ zero_extendqisi2
 1036 00c0 A27E     		ldrb	r2, [r4, #26]	@ zero_extendqisi2
 1037 00c2 1204     		lsls	r2, r2, #16
 1038 00c4 42EA0662 		orr	r2, r2, r6, lsl #24
 1039 00c8 667E     		ldrb	r6, [r4, #25]	@ zero_extendqisi2
 1040 00ca 42EA0622 		orr	r2, r2, r6, lsl #8
 1041 00ce 247E     		ldrb	r4, [r4, #24]	@ zero_extendqisi2
 1042 00d0 2243     		orrs	r2, r2, r4
 1043 00d2 2944     		add	r1, r1, r5
 1044 00d4 C1F88C21 		str	r2, [r1, #396]
 751:Drivers/STM32F1xx_HAL_Driver/Src/stm32f1xx_hal_can.c ****                                                                 ((uint32_t)hcan->pTxMsg->Data[6U] <
 752:Drivers/STM32F1xx_HAL_Driver/Src/stm32f1xx_hal_can.c ****                                                                 ((uint32_t)hcan->pTxMsg->Data[5U] <
 753:Drivers/STM32F1xx_HAL_Driver/Src/stm32f1xx_hal_can.c ****                                                                 ((uint32_t)hcan->pTxMsg->Data[4U] <
 754:Drivers/STM32F1xx_HAL_Driver/Src/stm32f1xx_hal_can.c **** 
 755:Drivers/STM32F1xx_HAL_Driver/Src/stm32f1xx_hal_can.c ****     /* Change CAN state */
 756:Drivers/STM32F1xx_HAL_Driver/Src/stm32f1xx_hal_can.c ****     switch(hcan->State)
 1045              		.loc 1 756 0
 1046 00d8 90F83C20 		ldrb	r2, [r0, #60]	@ zero_extendqisi2
 1047 00dc D2B2     		uxtb	r2, r2
 1048 00de 322A     		cmp	r2, #50
 1049 00e0 2ED0     		beq	.L108
 1050 00e2 622A     		cmp	r2, #98
 1051 00e4 30D0     		beq	.L109
 1052 00e6 222A     		cmp	r2, #34
 1053 00e8 12D0     		beq	.L120
 757:Drivers/STM32F1xx_HAL_Driver/Src/stm32f1xx_hal_can.c ****     {
 758:Drivers/STM32F1xx_HAL_Driver/Src/stm32f1xx_hal_can.c ****       case(HAL_CAN_STATE_BUSY_RX0):
 759:Drivers/STM32F1xx_HAL_Driver/Src/stm32f1xx_hal_can.c ****           hcan->State = HAL_CAN_STATE_BUSY_TX_RX0;
 760:Drivers/STM32F1xx_HAL_Driver/Src/stm32f1xx_hal_can.c ****           break;
 761:Drivers/STM32F1xx_HAL_Driver/Src/stm32f1xx_hal_can.c ****       case(HAL_CAN_STATE_BUSY_RX1):
 762:Drivers/STM32F1xx_HAL_Driver/Src/stm32f1xx_hal_can.c ****           hcan->State = HAL_CAN_STATE_BUSY_TX_RX1;
 763:Drivers/STM32F1xx_HAL_Driver/Src/stm32f1xx_hal_can.c ****           break;
 764:Drivers/STM32F1xx_HAL_Driver/Src/stm32f1xx_hal_can.c ****       case(HAL_CAN_STATE_BUSY_RX0_RX1):
 765:Drivers/STM32F1xx_HAL_Driver/Src/stm32f1xx_hal_can.c ****           hcan->State = HAL_CAN_STATE_BUSY_TX_RX0_RX1;
 766:Drivers/STM32F1xx_HAL_Driver/Src/stm32f1xx_hal_can.c ****           break;
 767:Drivers/STM32F1xx_HAL_Driver/Src/stm32f1xx_hal_can.c ****       default: /* HAL_CAN_STATE_READY */
 768:Drivers/STM32F1xx_HAL_Driver/Src/stm32f1xx_hal_can.c ****           hcan->State = HAL_CAN_STATE_BUSY_TX;
 1054              		.loc 1 768 0
 1055 00ea 1222     		movs	r2, #18
 1056 00ec 80F83C20 		strb	r2, [r0, #60]
 769:Drivers/STM32F1xx_HAL_Driver/Src/stm32f1xx_hal_can.c ****           break;
 1057              		.loc 1 769 0
 1058 00f0 11E0     		b	.L111
 1059              	.LVL67:
 1060              	.L114:
 721:Drivers/STM32F1xx_HAL_Driver/Src/stm32f1xx_hal_can.c ****     }
 1061              		.loc 1 721 0
 1062 00f2 0223     		movs	r3, #2
 1063 00f4 A6E7     		b	.L104
 1064              	.LVL68:
 1065              	.L105:
 735:Drivers/STM32F1xx_HAL_Driver/Src/stm32f1xx_hal_can.c ****                                                            hcan->pTxMsg->IDE |
ARM GAS  /tmp/cc4XmUnq.s 			page 35


 1066              		.loc 1 735 0
 1067 00f6 0668     		ldr	r6, [r0]
 1068 00f8 03F11804 		add	r4, r3, #24
 1069 00fc 2401     		lsls	r4, r4, #4
 1070 00fe 3559     		ldr	r5, [r6, r4]
 1071 0100 4F68     		ldr	r7, [r1, #4]
 1072 0102 42EAC702 		orr	r2, r2, r7, lsl #3
 737:Drivers/STM32F1xx_HAL_Driver/Src/stm32f1xx_hal_can.c ****     }
 1073              		.loc 1 737 0
 1074 0106 C968     		ldr	r1, [r1, #12]
 736:Drivers/STM32F1xx_HAL_Driver/Src/stm32f1xx_hal_can.c ****                                                            hcan->pTxMsg->RTR);
 1075              		.loc 1 736 0
 1076 0108 0A43     		orrs	r2, r2, r1
 735:Drivers/STM32F1xx_HAL_Driver/Src/stm32f1xx_hal_can.c ****                                                            hcan->pTxMsg->IDE |
 1077              		.loc 1 735 0
 1078 010a 2A43     		orrs	r2, r2, r5
 1079 010c 3251     		str	r2, [r6, r4]
 1080 010e AFE7     		b	.L106
 1081              	.L120:
 759:Drivers/STM32F1xx_HAL_Driver/Src/stm32f1xx_hal_can.c ****           break;
 1082              		.loc 1 759 0
 1083 0110 4222     		movs	r2, #66
 1084 0112 80F83C20 		strb	r2, [r0, #60]
 1085              	.L111:
 770:Drivers/STM32F1xx_HAL_Driver/Src/stm32f1xx_hal_can.c ****     }
 771:Drivers/STM32F1xx_HAL_Driver/Src/stm32f1xx_hal_can.c **** 
 772:Drivers/STM32F1xx_HAL_Driver/Src/stm32f1xx_hal_can.c ****     /* Set CAN error code to none */
 773:Drivers/STM32F1xx_HAL_Driver/Src/stm32f1xx_hal_can.c ****     hcan->ErrorCode = HAL_CAN_ERROR_NONE;
 1086              		.loc 1 773 0
 1087 0116 0022     		movs	r2, #0
 1088 0118 0264     		str	r2, [r0, #64]
 774:Drivers/STM32F1xx_HAL_Driver/Src/stm32f1xx_hal_can.c **** 
 775:Drivers/STM32F1xx_HAL_Driver/Src/stm32f1xx_hal_can.c ****     /* Process Unlocked */
 776:Drivers/STM32F1xx_HAL_Driver/Src/stm32f1xx_hal_can.c ****     __HAL_UNLOCK(hcan);
 1089              		.loc 1 776 0
 1090 011a 80F83D20 		strb	r2, [r0, #61]
 777:Drivers/STM32F1xx_HAL_Driver/Src/stm32f1xx_hal_can.c **** 
 778:Drivers/STM32F1xx_HAL_Driver/Src/stm32f1xx_hal_can.c ****     /* Request transmission */
 779:Drivers/STM32F1xx_HAL_Driver/Src/stm32f1xx_hal_can.c ****     hcan->Instance->sTxMailBox[transmitmailbox].TIR |= CAN_TI0R_TXRQ;
 1091              		.loc 1 779 0
 1092 011e 0468     		ldr	r4, [r0]
 1093 0120 1833     		adds	r3, r3, #24
 1094              	.LVL69:
 1095 0122 1B01     		lsls	r3, r3, #4
 1096              	.LVL70:
 1097 0124 E158     		ldr	r1, [r4, r3]
 1098 0126 41F00101 		orr	r1, r1, #1
 1099 012a E150     		str	r1, [r4, r3]
 780:Drivers/STM32F1xx_HAL_Driver/Src/stm32f1xx_hal_can.c **** 
 781:Drivers/STM32F1xx_HAL_Driver/Src/stm32f1xx_hal_can.c ****     /* Enable interrupts: */
 782:Drivers/STM32F1xx_HAL_Driver/Src/stm32f1xx_hal_can.c ****     /*  - Enable Error warning Interrupt */
 783:Drivers/STM32F1xx_HAL_Driver/Src/stm32f1xx_hal_can.c ****     /*  - Enable Error passive Interrupt */
 784:Drivers/STM32F1xx_HAL_Driver/Src/stm32f1xx_hal_can.c ****     /*  - Enable Bus-off Interrupt */
 785:Drivers/STM32F1xx_HAL_Driver/Src/stm32f1xx_hal_can.c ****     /*  - Enable Last error code Interrupt */
 786:Drivers/STM32F1xx_HAL_Driver/Src/stm32f1xx_hal_can.c ****     /*  - Enable Error Interrupt */
 787:Drivers/STM32F1xx_HAL_Driver/Src/stm32f1xx_hal_can.c ****     /*  - Enable Transmit mailbox empty Interrupt */
 788:Drivers/STM32F1xx_HAL_Driver/Src/stm32f1xx_hal_can.c ****     __HAL_CAN_ENABLE_IT(hcan, CAN_IT_EWG |
ARM GAS  /tmp/cc4XmUnq.s 			page 36


 1100              		.loc 1 788 0
 1101 012c 0168     		ldr	r1, [r0]
 1102 012e 4B69     		ldr	r3, [r1, #20]
 1103 0130 43F40F43 		orr	r3, r3, #36608
 1104 0134 43F00103 		orr	r3, r3, #1
 1105 0138 4B61     		str	r3, [r1, #20]
 789:Drivers/STM32F1xx_HAL_Driver/Src/stm32f1xx_hal_can.c ****                               CAN_IT_EPV |
 790:Drivers/STM32F1xx_HAL_Driver/Src/stm32f1xx_hal_can.c ****                               CAN_IT_BOF |
 791:Drivers/STM32F1xx_HAL_Driver/Src/stm32f1xx_hal_can.c ****                               CAN_IT_LEC |
 792:Drivers/STM32F1xx_HAL_Driver/Src/stm32f1xx_hal_can.c ****                               CAN_IT_ERR |
 793:Drivers/STM32F1xx_HAL_Driver/Src/stm32f1xx_hal_can.c ****                               CAN_IT_TME  );
 794:Drivers/STM32F1xx_HAL_Driver/Src/stm32f1xx_hal_can.c ****   }
 795:Drivers/STM32F1xx_HAL_Driver/Src/stm32f1xx_hal_can.c ****   else
 796:Drivers/STM32F1xx_HAL_Driver/Src/stm32f1xx_hal_can.c ****   {
 797:Drivers/STM32F1xx_HAL_Driver/Src/stm32f1xx_hal_can.c ****     /* Change CAN state */
 798:Drivers/STM32F1xx_HAL_Driver/Src/stm32f1xx_hal_can.c ****     hcan->State = HAL_CAN_STATE_ERROR;
 799:Drivers/STM32F1xx_HAL_Driver/Src/stm32f1xx_hal_can.c **** 
 800:Drivers/STM32F1xx_HAL_Driver/Src/stm32f1xx_hal_can.c ****     /* Return function status */
 801:Drivers/STM32F1xx_HAL_Driver/Src/stm32f1xx_hal_can.c ****     return HAL_ERROR;
 802:Drivers/STM32F1xx_HAL_Driver/Src/stm32f1xx_hal_can.c ****   }
 803:Drivers/STM32F1xx_HAL_Driver/Src/stm32f1xx_hal_can.c **** 
 804:Drivers/STM32F1xx_HAL_Driver/Src/stm32f1xx_hal_can.c ****   return HAL_OK;
 1106              		.loc 1 804 0
 1107 013a 1046     		mov	r0, r2
 1108              	.LVL71:
 805:Drivers/STM32F1xx_HAL_Driver/Src/stm32f1xx_hal_can.c **** }
 1109              		.loc 1 805 0
 1110 013c F0BC     		pop	{r4, r5, r6, r7}
 1111              	.LCFI9:
 1112              		.cfi_remember_state
 1113              		.cfi_restore 7
 1114              		.cfi_restore 6
 1115              		.cfi_restore 5
 1116              		.cfi_restore 4
 1117              		.cfi_def_cfa_offset 0
 1118 013e 7047     		bx	lr
 1119              	.LVL72:
 1120              	.L108:
 1121              	.LCFI10:
 1122              		.cfi_restore_state
 762:Drivers/STM32F1xx_HAL_Driver/Src/stm32f1xx_hal_can.c ****           break;
 1123              		.loc 1 762 0
 1124 0140 5222     		movs	r2, #82
 1125 0142 80F83C20 		strb	r2, [r0, #60]
 763:Drivers/STM32F1xx_HAL_Driver/Src/stm32f1xx_hal_can.c ****       case(HAL_CAN_STATE_BUSY_RX0_RX1):
 1126              		.loc 1 763 0
 1127 0146 E6E7     		b	.L111
 1128              	.L109:
 765:Drivers/STM32F1xx_HAL_Driver/Src/stm32f1xx_hal_can.c ****           break;
 1129              		.loc 1 765 0
 1130 0148 7222     		movs	r2, #114
 1131 014a 80F83C20 		strb	r2, [r0, #60]
 766:Drivers/STM32F1xx_HAL_Driver/Src/stm32f1xx_hal_can.c ****       default: /* HAL_CAN_STATE_READY */
 1132              		.loc 1 766 0
 1133 014e E2E7     		b	.L111
 1134              	.LVL73:
 1135              	.L102:
ARM GAS  /tmp/cc4XmUnq.s 			page 37


 1136              	.LCFI11:
 1137              		.cfi_def_cfa_offset 0
 1138              		.cfi_restore 4
 1139              		.cfi_restore 5
 1140              		.cfi_restore 6
 1141              		.cfi_restore 7
 798:Drivers/STM32F1xx_HAL_Driver/Src/stm32f1xx_hal_can.c **** 
 1142              		.loc 1 798 0
 1143 0150 0423     		movs	r3, #4
 1144 0152 80F83C30 		strb	r3, [r0, #60]
 801:Drivers/STM32F1xx_HAL_Driver/Src/stm32f1xx_hal_can.c ****   }
 1145              		.loc 1 801 0
 1146 0156 0120     		movs	r0, #1
 1147              	.LVL74:
 1148 0158 7047     		bx	lr
 1149              	.LVL75:
 1150              	.L112:
 708:Drivers/STM32F1xx_HAL_Driver/Src/stm32f1xx_hal_can.c ****     
 1151              		.loc 1 708 0
 1152 015a 0220     		movs	r0, #2
 1153              	.LVL76:
 1154 015c 7047     		bx	lr
 1155              		.cfi_endproc
 1156              	.LFE70:
 1158              		.section	.text.HAL_CAN_Receive,"ax",%progbits
 1159              		.align	1
 1160              		.global	HAL_CAN_Receive
 1161              		.syntax unified
 1162              		.thumb
 1163              		.thumb_func
 1164              		.fpu softvfp
 1166              	HAL_CAN_Receive:
 1167              	.LFB71:
 806:Drivers/STM32F1xx_HAL_Driver/Src/stm32f1xx_hal_can.c **** 
 807:Drivers/STM32F1xx_HAL_Driver/Src/stm32f1xx_hal_can.c **** /**
 808:Drivers/STM32F1xx_HAL_Driver/Src/stm32f1xx_hal_can.c ****   * @brief  Receives a correct CAN frame.
 809:Drivers/STM32F1xx_HAL_Driver/Src/stm32f1xx_hal_can.c ****   * @param  hcan: pointer to a CAN_HandleTypeDef structure that contains
 810:Drivers/STM32F1xx_HAL_Driver/Src/stm32f1xx_hal_can.c ****   *         the configuration information for the specified CAN.  
 811:Drivers/STM32F1xx_HAL_Driver/Src/stm32f1xx_hal_can.c ****   * @param  FIFONumber: FIFO Number value
 812:Drivers/STM32F1xx_HAL_Driver/Src/stm32f1xx_hal_can.c ****   * @param  Timeout: Specify Timeout value 
 813:Drivers/STM32F1xx_HAL_Driver/Src/stm32f1xx_hal_can.c ****   * @retval HAL status
 814:Drivers/STM32F1xx_HAL_Driver/Src/stm32f1xx_hal_can.c ****   */
 815:Drivers/STM32F1xx_HAL_Driver/Src/stm32f1xx_hal_can.c **** HAL_StatusTypeDef HAL_CAN_Receive(CAN_HandleTypeDef* hcan, uint8_t FIFONumber, uint32_t Timeout)
 816:Drivers/STM32F1xx_HAL_Driver/Src/stm32f1xx_hal_can.c **** {
 1168              		.loc 1 816 0
 1169              		.cfi_startproc
 1170              		@ args = 0, pretend = 0, frame = 0
 1171              		@ frame_needed = 0, uses_anonymous_args = 0
 1172              	.LVL77:
 1173 0000 F8B5     		push	{r3, r4, r5, r6, r7, lr}
 1174              	.LCFI12:
 1175              		.cfi_def_cfa_offset 24
 1176              		.cfi_offset 3, -24
 1177              		.cfi_offset 4, -20
 1178              		.cfi_offset 5, -16
 1179              		.cfi_offset 6, -12
 1180              		.cfi_offset 7, -8
ARM GAS  /tmp/cc4XmUnq.s 			page 38


 1181              		.cfi_offset 14, -4
 1182              	.LVL78:
 817:Drivers/STM32F1xx_HAL_Driver/Src/stm32f1xx_hal_can.c ****   uint32_t tickstart = 0U;
 818:Drivers/STM32F1xx_HAL_Driver/Src/stm32f1xx_hal_can.c ****   CanRxMsgTypeDef* pRxMsg = NULL;
 819:Drivers/STM32F1xx_HAL_Driver/Src/stm32f1xx_hal_can.c **** 
 820:Drivers/STM32F1xx_HAL_Driver/Src/stm32f1xx_hal_can.c ****   /* Check the parameters */
 821:Drivers/STM32F1xx_HAL_Driver/Src/stm32f1xx_hal_can.c ****   assert_param(IS_CAN_FIFO(FIFONumber));
 822:Drivers/STM32F1xx_HAL_Driver/Src/stm32f1xx_hal_can.c **** 
 823:Drivers/STM32F1xx_HAL_Driver/Src/stm32f1xx_hal_can.c ****   /* Check if CAN state is not busy for RX FIFO0 */
 824:Drivers/STM32F1xx_HAL_Driver/Src/stm32f1xx_hal_can.c ****   if ((FIFONumber == CAN_FIFO0) && ((hcan->State == HAL_CAN_STATE_BUSY_RX0) ||         \
 1183              		.loc 1 824 0
 1184 0002 0D46     		mov	r5, r1
 1185 0004 B9B9     		cbnz	r1, .L122
 1186              		.loc 1 824 0 is_stmt 0 discriminator 1
 1187 0006 90F83C30 		ldrb	r3, [r0, #60]	@ zero_extendqisi2
 1188 000a DBB2     		uxtb	r3, r3
 1189 000c 222B     		cmp	r3, #34
 1190 000e 00F02F81 		beq	.L157
 825:Drivers/STM32F1xx_HAL_Driver/Src/stm32f1xx_hal_can.c ****                                     (hcan->State == HAL_CAN_STATE_BUSY_TX_RX0) ||      \
 1191              		.loc 1 825 0 is_stmt 1 discriminator 2
 1192 0012 90F83C30 		ldrb	r3, [r0, #60]	@ zero_extendqisi2
 1193 0016 DBB2     		uxtb	r3, r3
 824:Drivers/STM32F1xx_HAL_Driver/Src/stm32f1xx_hal_can.c ****                                     (hcan->State == HAL_CAN_STATE_BUSY_TX_RX0) ||      \
 1194              		.loc 1 824 0 discriminator 2
 1195 0018 422B     		cmp	r3, #66
 1196 001a 00F02B81 		beq	.L158
 826:Drivers/STM32F1xx_HAL_Driver/Src/stm32f1xx_hal_can.c ****                                     (hcan->State == HAL_CAN_STATE_BUSY_RX0_RX1) ||     \
 1197              		.loc 1 826 0
 1198 001e 90F83C30 		ldrb	r3, [r0, #60]	@ zero_extendqisi2
 1199 0022 DBB2     		uxtb	r3, r3
 825:Drivers/STM32F1xx_HAL_Driver/Src/stm32f1xx_hal_can.c ****                                     (hcan->State == HAL_CAN_STATE_BUSY_TX_RX0) ||      \
 1200              		.loc 1 825 0
 1201 0024 622B     		cmp	r3, #98
 1202 0026 00F02781 		beq	.L159
 827:Drivers/STM32F1xx_HAL_Driver/Src/stm32f1xx_hal_can.c ****                                     (hcan->State == HAL_CAN_STATE_BUSY_TX_RX0_RX1)))
 1203              		.loc 1 827 0
 1204 002a 90F83C30 		ldrb	r3, [r0, #60]	@ zero_extendqisi2
 1205 002e DBB2     		uxtb	r3, r3
 826:Drivers/STM32F1xx_HAL_Driver/Src/stm32f1xx_hal_can.c ****                                     (hcan->State == HAL_CAN_STATE_BUSY_RX0_RX1) ||     \
 1206              		.loc 1 826 0
 1207 0030 722B     		cmp	r3, #114
 1208 0032 00F02381 		beq	.L160
 1209              	.L122:
 828:Drivers/STM32F1xx_HAL_Driver/Src/stm32f1xx_hal_can.c ****   {
 829:Drivers/STM32F1xx_HAL_Driver/Src/stm32f1xx_hal_can.c ****     return HAL_BUSY;
 830:Drivers/STM32F1xx_HAL_Driver/Src/stm32f1xx_hal_can.c ****   }
 831:Drivers/STM32F1xx_HAL_Driver/Src/stm32f1xx_hal_can.c **** 
 832:Drivers/STM32F1xx_HAL_Driver/Src/stm32f1xx_hal_can.c ****   /* Check if CAN state is not busy for RX FIFO1 */
 833:Drivers/STM32F1xx_HAL_Driver/Src/stm32f1xx_hal_can.c ****   if ((FIFONumber == CAN_FIFO1) && ((hcan->State == HAL_CAN_STATE_BUSY_RX1) ||         \
 1210              		.loc 1 833 0
 1211 0036 012D     		cmp	r5, #1
 1212 0038 15D0     		beq	.L171
 1213              	.L124:
 834:Drivers/STM32F1xx_HAL_Driver/Src/stm32f1xx_hal_can.c ****                                     (hcan->State == HAL_CAN_STATE_BUSY_TX_RX1) ||      \
 835:Drivers/STM32F1xx_HAL_Driver/Src/stm32f1xx_hal_can.c ****                                     (hcan->State == HAL_CAN_STATE_BUSY_RX0_RX1) ||     \
 836:Drivers/STM32F1xx_HAL_Driver/Src/stm32f1xx_hal_can.c ****                                     (hcan->State == HAL_CAN_STATE_BUSY_TX_RX0_RX1)))
 837:Drivers/STM32F1xx_HAL_Driver/Src/stm32f1xx_hal_can.c ****   {
ARM GAS  /tmp/cc4XmUnq.s 			page 39


 838:Drivers/STM32F1xx_HAL_Driver/Src/stm32f1xx_hal_can.c ****     return HAL_BUSY;
 839:Drivers/STM32F1xx_HAL_Driver/Src/stm32f1xx_hal_can.c ****   }
 840:Drivers/STM32F1xx_HAL_Driver/Src/stm32f1xx_hal_can.c **** 
 841:Drivers/STM32F1xx_HAL_Driver/Src/stm32f1xx_hal_can.c ****   /* Process locked */
 842:Drivers/STM32F1xx_HAL_Driver/Src/stm32f1xx_hal_can.c ****   __HAL_LOCK(hcan);
 1214              		.loc 1 842 0
 1215 003a 90F83D30 		ldrb	r3, [r0, #61]	@ zero_extendqisi2
 1216 003e 012B     		cmp	r3, #1
 1217 0040 00F02481 		beq	.L165
 1218              		.loc 1 842 0 is_stmt 0 discriminator 2
 1219 0044 0123     		movs	r3, #1
 1220 0046 80F83D30 		strb	r3, [r0, #61]
 843:Drivers/STM32F1xx_HAL_Driver/Src/stm32f1xx_hal_can.c **** 
 844:Drivers/STM32F1xx_HAL_Driver/Src/stm32f1xx_hal_can.c ****   /* Change CAN state */
 845:Drivers/STM32F1xx_HAL_Driver/Src/stm32f1xx_hal_can.c ****   if (FIFONumber == CAN_FIFO0)
 1221              		.loc 1 845 0 is_stmt 1 discriminator 2
 1222 004a B5BB     		cbnz	r5, .L125
 846:Drivers/STM32F1xx_HAL_Driver/Src/stm32f1xx_hal_can.c ****   {
 847:Drivers/STM32F1xx_HAL_Driver/Src/stm32f1xx_hal_can.c ****     switch(hcan->State)
 1223              		.loc 1 847 0
 1224 004c 90F83C30 		ldrb	r3, [r0, #60]	@ zero_extendqisi2
 1225 0050 DBB2     		uxtb	r3, r3
 1226 0052 322B     		cmp	r3, #50
 1227 0054 29D0     		beq	.L127
 1228 0056 522B     		cmp	r3, #82
 1229 0058 2BD0     		beq	.L128
 1230 005a 122B     		cmp	r3, #18
 1231 005c 1CD0     		beq	.L172
 848:Drivers/STM32F1xx_HAL_Driver/Src/stm32f1xx_hal_can.c ****     {
 849:Drivers/STM32F1xx_HAL_Driver/Src/stm32f1xx_hal_can.c ****       case(HAL_CAN_STATE_BUSY_TX):
 850:Drivers/STM32F1xx_HAL_Driver/Src/stm32f1xx_hal_can.c ****         hcan->State = HAL_CAN_STATE_BUSY_TX_RX0;
 851:Drivers/STM32F1xx_HAL_Driver/Src/stm32f1xx_hal_can.c ****         break;
 852:Drivers/STM32F1xx_HAL_Driver/Src/stm32f1xx_hal_can.c ****       case(HAL_CAN_STATE_BUSY_RX1):
 853:Drivers/STM32F1xx_HAL_Driver/Src/stm32f1xx_hal_can.c ****         hcan->State = HAL_CAN_STATE_BUSY_RX0_RX1;
 854:Drivers/STM32F1xx_HAL_Driver/Src/stm32f1xx_hal_can.c ****         break;
 855:Drivers/STM32F1xx_HAL_Driver/Src/stm32f1xx_hal_can.c ****       case(HAL_CAN_STATE_BUSY_TX_RX1):
 856:Drivers/STM32F1xx_HAL_Driver/Src/stm32f1xx_hal_can.c ****         hcan->State = HAL_CAN_STATE_BUSY_TX_RX0_RX1;
 857:Drivers/STM32F1xx_HAL_Driver/Src/stm32f1xx_hal_can.c ****         break;
 858:Drivers/STM32F1xx_HAL_Driver/Src/stm32f1xx_hal_can.c ****       default: /* HAL_CAN_STATE_READY */
 859:Drivers/STM32F1xx_HAL_Driver/Src/stm32f1xx_hal_can.c ****         hcan->State = HAL_CAN_STATE_BUSY_RX0;
 1232              		.loc 1 859 0
 1233 005e 2223     		movs	r3, #34
 1234 0060 80F83C30 		strb	r3, [r0, #60]
 860:Drivers/STM32F1xx_HAL_Driver/Src/stm32f1xx_hal_can.c ****         break;
 1235              		.loc 1 860 0
 1236 0064 1BE0     		b	.L130
 1237              	.L171:
 833:Drivers/STM32F1xx_HAL_Driver/Src/stm32f1xx_hal_can.c ****                                     (hcan->State == HAL_CAN_STATE_BUSY_TX_RX1) ||      \
 1238              		.loc 1 833 0 discriminator 1
 1239 0066 90F83C30 		ldrb	r3, [r0, #60]	@ zero_extendqisi2
 1240 006a DBB2     		uxtb	r3, r3
 1241 006c 322B     		cmp	r3, #50
 1242 006e 00F00781 		beq	.L161
 834:Drivers/STM32F1xx_HAL_Driver/Src/stm32f1xx_hal_can.c ****                                     (hcan->State == HAL_CAN_STATE_BUSY_RX0_RX1) ||     \
 1243              		.loc 1 834 0 discriminator 2
 1244 0072 90F83C30 		ldrb	r3, [r0, #60]	@ zero_extendqisi2
 1245 0076 DBB2     		uxtb	r3, r3
ARM GAS  /tmp/cc4XmUnq.s 			page 40


 833:Drivers/STM32F1xx_HAL_Driver/Src/stm32f1xx_hal_can.c ****                                     (hcan->State == HAL_CAN_STATE_BUSY_TX_RX1) ||      \
 1246              		.loc 1 833 0 discriminator 2
 1247 0078 522B     		cmp	r3, #82
 1248 007a 00F00381 		beq	.L162
 835:Drivers/STM32F1xx_HAL_Driver/Src/stm32f1xx_hal_can.c ****                                     (hcan->State == HAL_CAN_STATE_BUSY_TX_RX0_RX1)))
 1249              		.loc 1 835 0
 1250 007e 90F83C30 		ldrb	r3, [r0, #60]	@ zero_extendqisi2
 1251 0082 DBB2     		uxtb	r3, r3
 834:Drivers/STM32F1xx_HAL_Driver/Src/stm32f1xx_hal_can.c ****                                     (hcan->State == HAL_CAN_STATE_BUSY_RX0_RX1) ||     \
 1252              		.loc 1 834 0
 1253 0084 622B     		cmp	r3, #98
 1254 0086 00F0FF80 		beq	.L163
 836:Drivers/STM32F1xx_HAL_Driver/Src/stm32f1xx_hal_can.c ****   {
 1255              		.loc 1 836 0
 1256 008a 90F83C30 		ldrb	r3, [r0, #60]	@ zero_extendqisi2
 1257 008e DBB2     		uxtb	r3, r3
 835:Drivers/STM32F1xx_HAL_Driver/Src/stm32f1xx_hal_can.c ****                                     (hcan->State == HAL_CAN_STATE_BUSY_TX_RX0_RX1)))
 1258              		.loc 1 835 0
 1259 0090 722B     		cmp	r3, #114
 1260 0092 D2D1     		bne	.L124
 838:Drivers/STM32F1xx_HAL_Driver/Src/stm32f1xx_hal_can.c ****   }
 1261              		.loc 1 838 0
 1262 0094 0220     		movs	r0, #2
 1263              	.LVL79:
 1264 0096 F8BD     		pop	{r3, r4, r5, r6, r7, pc}
 1265              	.LVL80:
 1266              	.L172:
 850:Drivers/STM32F1xx_HAL_Driver/Src/stm32f1xx_hal_can.c ****         break;
 1267              		.loc 1 850 0
 1268 0098 4223     		movs	r3, #66
 1269 009a 80F83C30 		strb	r3, [r0, #60]
 1270              	.L130:
 1271 009e 1646     		mov	r6, r2
 1272 00a0 0446     		mov	r4, r0
 861:Drivers/STM32F1xx_HAL_Driver/Src/stm32f1xx_hal_can.c ****     }
 862:Drivers/STM32F1xx_HAL_Driver/Src/stm32f1xx_hal_can.c ****   }
 863:Drivers/STM32F1xx_HAL_Driver/Src/stm32f1xx_hal_can.c ****   else /* FIFONumber == CAN_FIFO1 */
 864:Drivers/STM32F1xx_HAL_Driver/Src/stm32f1xx_hal_can.c ****   {
 865:Drivers/STM32F1xx_HAL_Driver/Src/stm32f1xx_hal_can.c ****     switch(hcan->State)
 866:Drivers/STM32F1xx_HAL_Driver/Src/stm32f1xx_hal_can.c ****     {
 867:Drivers/STM32F1xx_HAL_Driver/Src/stm32f1xx_hal_can.c ****       case(HAL_CAN_STATE_BUSY_TX):
 868:Drivers/STM32F1xx_HAL_Driver/Src/stm32f1xx_hal_can.c ****         hcan->State = HAL_CAN_STATE_BUSY_TX_RX1;
 869:Drivers/STM32F1xx_HAL_Driver/Src/stm32f1xx_hal_can.c ****         break;
 870:Drivers/STM32F1xx_HAL_Driver/Src/stm32f1xx_hal_can.c ****       case(HAL_CAN_STATE_BUSY_RX0):
 871:Drivers/STM32F1xx_HAL_Driver/Src/stm32f1xx_hal_can.c ****         hcan->State = HAL_CAN_STATE_BUSY_RX0_RX1;
 872:Drivers/STM32F1xx_HAL_Driver/Src/stm32f1xx_hal_can.c ****         break;
 873:Drivers/STM32F1xx_HAL_Driver/Src/stm32f1xx_hal_can.c ****       case(HAL_CAN_STATE_BUSY_TX_RX0):
 874:Drivers/STM32F1xx_HAL_Driver/Src/stm32f1xx_hal_can.c ****         hcan->State = HAL_CAN_STATE_BUSY_TX_RX0_RX1;
 875:Drivers/STM32F1xx_HAL_Driver/Src/stm32f1xx_hal_can.c ****         break;
 876:Drivers/STM32F1xx_HAL_Driver/Src/stm32f1xx_hal_can.c ****       default: /* HAL_CAN_STATE_READY */
 877:Drivers/STM32F1xx_HAL_Driver/Src/stm32f1xx_hal_can.c ****         hcan->State = HAL_CAN_STATE_BUSY_RX1;
 878:Drivers/STM32F1xx_HAL_Driver/Src/stm32f1xx_hal_can.c ****         break;
 879:Drivers/STM32F1xx_HAL_Driver/Src/stm32f1xx_hal_can.c ****     }
 880:Drivers/STM32F1xx_HAL_Driver/Src/stm32f1xx_hal_can.c ****   }
 881:Drivers/STM32F1xx_HAL_Driver/Src/stm32f1xx_hal_can.c ****   /* Get tick */ 
 882:Drivers/STM32F1xx_HAL_Driver/Src/stm32f1xx_hal_can.c ****   tickstart = HAL_GetTick();
 1273              		.loc 1 882 0
ARM GAS  /tmp/cc4XmUnq.s 			page 41


 1274 00a2 FFF7FEFF 		bl	HAL_GetTick
 1275              	.LVL81:
 1276 00a6 0746     		mov	r7, r0
 1277              	.LVL82:
 883:Drivers/STM32F1xx_HAL_Driver/Src/stm32f1xx_hal_can.c ****   
 884:Drivers/STM32F1xx_HAL_Driver/Src/stm32f1xx_hal_can.c ****   /* Check pending message */
 885:Drivers/STM32F1xx_HAL_Driver/Src/stm32f1xx_hal_can.c ****   while(__HAL_CAN_MSG_PENDING(hcan, FIFONumber) == 0U)
 1278              		.loc 1 885 0
 1279 00a8 38E0     		b	.L136
 1280              	.LVL83:
 1281              	.L127:
 853:Drivers/STM32F1xx_HAL_Driver/Src/stm32f1xx_hal_can.c ****         break;
 1282              		.loc 1 853 0
 1283 00aa 6223     		movs	r3, #98
 1284 00ac 80F83C30 		strb	r3, [r0, #60]
 854:Drivers/STM32F1xx_HAL_Driver/Src/stm32f1xx_hal_can.c ****       case(HAL_CAN_STATE_BUSY_TX_RX1):
 1285              		.loc 1 854 0
 1286 00b0 F5E7     		b	.L130
 1287              	.L128:
 856:Drivers/STM32F1xx_HAL_Driver/Src/stm32f1xx_hal_can.c ****         break;
 1288              		.loc 1 856 0
 1289 00b2 7223     		movs	r3, #114
 1290 00b4 80F83C30 		strb	r3, [r0, #60]
 857:Drivers/STM32F1xx_HAL_Driver/Src/stm32f1xx_hal_can.c ****       default: /* HAL_CAN_STATE_READY */
 1291              		.loc 1 857 0
 1292 00b8 F1E7     		b	.L130
 1293              	.L125:
 865:Drivers/STM32F1xx_HAL_Driver/Src/stm32f1xx_hal_can.c ****     {
 1294              		.loc 1 865 0
 1295 00ba 90F83C30 		ldrb	r3, [r0, #60]	@ zero_extendqisi2
 1296 00be DBB2     		uxtb	r3, r3
 1297 00c0 222B     		cmp	r3, #34
 1298 00c2 0BD0     		beq	.L132
 1299 00c4 422B     		cmp	r3, #66
 1300 00c6 0DD0     		beq	.L133
 1301 00c8 122B     		cmp	r3, #18
 1302 00ca 03D0     		beq	.L173
 877:Drivers/STM32F1xx_HAL_Driver/Src/stm32f1xx_hal_can.c ****         break;
 1303              		.loc 1 877 0
 1304 00cc 3223     		movs	r3, #50
 1305 00ce 80F83C30 		strb	r3, [r0, #60]
 878:Drivers/STM32F1xx_HAL_Driver/Src/stm32f1xx_hal_can.c ****     }
 1306              		.loc 1 878 0
 1307 00d2 E4E7     		b	.L130
 1308              	.L173:
 868:Drivers/STM32F1xx_HAL_Driver/Src/stm32f1xx_hal_can.c ****         break;
 1309              		.loc 1 868 0
 1310 00d4 5223     		movs	r3, #82
 1311 00d6 80F83C30 		strb	r3, [r0, #60]
 869:Drivers/STM32F1xx_HAL_Driver/Src/stm32f1xx_hal_can.c ****       case(HAL_CAN_STATE_BUSY_RX0):
 1312              		.loc 1 869 0
 1313 00da E0E7     		b	.L130
 1314              	.L132:
 871:Drivers/STM32F1xx_HAL_Driver/Src/stm32f1xx_hal_can.c ****         break;
 1315              		.loc 1 871 0
 1316 00dc 6223     		movs	r3, #98
 1317 00de 80F83C30 		strb	r3, [r0, #60]
ARM GAS  /tmp/cc4XmUnq.s 			page 42


 872:Drivers/STM32F1xx_HAL_Driver/Src/stm32f1xx_hal_can.c ****       case(HAL_CAN_STATE_BUSY_TX_RX0):
 1318              		.loc 1 872 0
 1319 00e2 DCE7     		b	.L130
 1320              	.L133:
 874:Drivers/STM32F1xx_HAL_Driver/Src/stm32f1xx_hal_can.c ****         break;
 1321              		.loc 1 874 0
 1322 00e4 7223     		movs	r3, #114
 1323 00e6 80F83C30 		strb	r3, [r0, #60]
 875:Drivers/STM32F1xx_HAL_Driver/Src/stm32f1xx_hal_can.c ****       default: /* HAL_CAN_STATE_READY */
 1324              		.loc 1 875 0
 1325 00ea D8E7     		b	.L130
 1326              	.LVL84:
 1327              	.L175:
 886:Drivers/STM32F1xx_HAL_Driver/Src/stm32f1xx_hal_can.c ****   {
 887:Drivers/STM32F1xx_HAL_Driver/Src/stm32f1xx_hal_can.c ****     /* Check for the Timeout */
 888:Drivers/STM32F1xx_HAL_Driver/Src/stm32f1xx_hal_can.c ****     if(Timeout != HAL_MAX_DELAY)
 889:Drivers/STM32F1xx_HAL_Driver/Src/stm32f1xx_hal_can.c ****     {
 890:Drivers/STM32F1xx_HAL_Driver/Src/stm32f1xx_hal_can.c ****       if((Timeout == 0U) || ((HAL_GetTick()-tickstart) > Timeout))
 1328              		.loc 1 890 0
 1329 00ec 26B1     		cbz	r6, .L137
 1330              		.loc 1 890 0 is_stmt 0 discriminator 1
 1331 00ee FFF7FEFF 		bl	HAL_GetTick
 1332              	.LVL85:
 1333 00f2 C01B     		subs	r0, r0, r7
 1334 00f4 8642     		cmp	r6, r0
 1335 00f6 11D2     		bcs	.L136
 1336              	.L137:
 891:Drivers/STM32F1xx_HAL_Driver/Src/stm32f1xx_hal_can.c ****       {
 892:Drivers/STM32F1xx_HAL_Driver/Src/stm32f1xx_hal_can.c ****         hcan->State = HAL_CAN_STATE_TIMEOUT;
 1337              		.loc 1 892 0 is_stmt 1
 1338 00f8 0320     		movs	r0, #3
 1339 00fa 84F83C00 		strb	r0, [r4, #60]
 893:Drivers/STM32F1xx_HAL_Driver/Src/stm32f1xx_hal_can.c ****         /* Process unlocked */
 894:Drivers/STM32F1xx_HAL_Driver/Src/stm32f1xx_hal_can.c ****         __HAL_UNLOCK(hcan);
 1340              		.loc 1 894 0
 1341 00fe 0023     		movs	r3, #0
 1342 0100 84F83D30 		strb	r3, [r4, #61]
 895:Drivers/STM32F1xx_HAL_Driver/Src/stm32f1xx_hal_can.c ****         return HAL_TIMEOUT;
 1343              		.loc 1 895 0
 1344 0104 F8BD     		pop	{r3, r4, r5, r6, r7, pc}
 1345              	.LVL86:
 1346              	.L138:
 885:Drivers/STM32F1xx_HAL_Driver/Src/stm32f1xx_hal_can.c ****   {
 1347              		.loc 1 885 0 discriminator 2
 1348 0106 2368     		ldr	r3, [r4]
 1349 0108 1B69     		ldr	r3, [r3, #16]
 1350 010a 13F0030F 		tst	r3, #3
 1351 010e 0CBF     		ite	eq
 1352 0110 0123     		moveq	r3, #1
 1353 0112 0023     		movne	r3, #0
 1354              	.L139:
 885:Drivers/STM32F1xx_HAL_Driver/Src/stm32f1xx_hal_can.c ****   {
 1355              		.loc 1 885 0 is_stmt 0 discriminator 4
 1356 0114 63B1     		cbz	r3, .L174
 888:Drivers/STM32F1xx_HAL_Driver/Src/stm32f1xx_hal_can.c ****     {
 1357              		.loc 1 888 0 is_stmt 1
 1358 0116 B6F1FF3F 		cmp	r6, #-1
ARM GAS  /tmp/cc4XmUnq.s 			page 43


 1359 011a E7D1     		bne	.L175
 1360              	.L136:
 885:Drivers/STM32F1xx_HAL_Driver/Src/stm32f1xx_hal_can.c ****   {
 1361              		.loc 1 885 0
 1362 011c 002D     		cmp	r5, #0
 1363 011e F2D1     		bne	.L138
 885:Drivers/STM32F1xx_HAL_Driver/Src/stm32f1xx_hal_can.c ****   {
 1364              		.loc 1 885 0 is_stmt 0 discriminator 1
 1365 0120 2368     		ldr	r3, [r4]
 1366 0122 DB68     		ldr	r3, [r3, #12]
 1367 0124 13F0030F 		tst	r3, #3
 1368 0128 0CBF     		ite	eq
 1369 012a 0123     		moveq	r3, #1
 1370 012c 0023     		movne	r3, #0
 1371 012e F1E7     		b	.L139
 1372              	.L174:
 896:Drivers/STM32F1xx_HAL_Driver/Src/stm32f1xx_hal_can.c ****       }
 897:Drivers/STM32F1xx_HAL_Driver/Src/stm32f1xx_hal_can.c ****     }
 898:Drivers/STM32F1xx_HAL_Driver/Src/stm32f1xx_hal_can.c ****   }
 899:Drivers/STM32F1xx_HAL_Driver/Src/stm32f1xx_hal_can.c **** 
 900:Drivers/STM32F1xx_HAL_Driver/Src/stm32f1xx_hal_can.c ****   /* Set RxMsg pointer */
 901:Drivers/STM32F1xx_HAL_Driver/Src/stm32f1xx_hal_can.c ****   if(FIFONumber == CAN_FIFO0)
 1373              		.loc 1 901 0 is_stmt 1
 1374 0130 002D     		cmp	r5, #0
 1375 0132 67D1     		bne	.L141
 902:Drivers/STM32F1xx_HAL_Driver/Src/stm32f1xx_hal_can.c ****   {
 903:Drivers/STM32F1xx_HAL_Driver/Src/stm32f1xx_hal_can.c ****     pRxMsg = hcan->pRxMsg;
 1376              		.loc 1 903 0
 1377 0134 636B     		ldr	r3, [r4, #52]
 1378              	.LVL87:
 1379              	.L142:
 904:Drivers/STM32F1xx_HAL_Driver/Src/stm32f1xx_hal_can.c ****   }
 905:Drivers/STM32F1xx_HAL_Driver/Src/stm32f1xx_hal_can.c ****   else /* FIFONumber == CAN_FIFO1 */
 906:Drivers/STM32F1xx_HAL_Driver/Src/stm32f1xx_hal_can.c ****   {
 907:Drivers/STM32F1xx_HAL_Driver/Src/stm32f1xx_hal_can.c ****     pRxMsg = hcan->pRx1Msg;
 908:Drivers/STM32F1xx_HAL_Driver/Src/stm32f1xx_hal_can.c ****   }
 909:Drivers/STM32F1xx_HAL_Driver/Src/stm32f1xx_hal_can.c **** 
 910:Drivers/STM32F1xx_HAL_Driver/Src/stm32f1xx_hal_can.c ****   /* Get the Id */
 911:Drivers/STM32F1xx_HAL_Driver/Src/stm32f1xx_hal_can.c ****   pRxMsg->IDE = (uint8_t)CAN_ID_EXT & hcan->Instance->sFIFOMailBox[FIFONumber].RIR;
 1380              		.loc 1 911 0
 1381 0136 2168     		ldr	r1, [r4]
 1382 0138 05F11B02 		add	r2, r5, #27
 1383 013c 1201     		lsls	r2, r2, #4
 1384 013e 8A58     		ldr	r2, [r1, r2]
 1385 0140 02F00402 		and	r2, r2, #4
 1386 0144 9A60     		str	r2, [r3, #8]
 912:Drivers/STM32F1xx_HAL_Driver/Src/stm32f1xx_hal_can.c ****   if (pRxMsg->IDE == CAN_ID_STD)
 1387              		.loc 1 912 0
 1388 0146 002A     		cmp	r2, #0
 1389 0148 5ED1     		bne	.L143
 913:Drivers/STM32F1xx_HAL_Driver/Src/stm32f1xx_hal_can.c ****   {
 914:Drivers/STM32F1xx_HAL_Driver/Src/stm32f1xx_hal_can.c ****     pRxMsg->StdId = 0x000007FFU & (hcan->Instance->sFIFOMailBox[FIFONumber].RIR >> 21U);
 1390              		.loc 1 914 0
 1391 014a 2168     		ldr	r1, [r4]
 1392 014c 05F11B02 		add	r2, r5, #27
 1393 0150 1201     		lsls	r2, r2, #4
 1394 0152 8A58     		ldr	r2, [r1, r2]
ARM GAS  /tmp/cc4XmUnq.s 			page 44


 1395 0154 520D     		lsrs	r2, r2, #21
 1396 0156 1A60     		str	r2, [r3]
 1397              	.L144:
 915:Drivers/STM32F1xx_HAL_Driver/Src/stm32f1xx_hal_can.c ****   }
 916:Drivers/STM32F1xx_HAL_Driver/Src/stm32f1xx_hal_can.c ****   else
 917:Drivers/STM32F1xx_HAL_Driver/Src/stm32f1xx_hal_can.c ****   {
 918:Drivers/STM32F1xx_HAL_Driver/Src/stm32f1xx_hal_can.c ****     pRxMsg->ExtId = 0x1FFFFFFFU & (hcan->Instance->sFIFOMailBox[FIFONumber].RIR >> 3U);
 919:Drivers/STM32F1xx_HAL_Driver/Src/stm32f1xx_hal_can.c ****   }
 920:Drivers/STM32F1xx_HAL_Driver/Src/stm32f1xx_hal_can.c ****   
 921:Drivers/STM32F1xx_HAL_Driver/Src/stm32f1xx_hal_can.c ****   pRxMsg->RTR = (uint8_t)CAN_RTR_REMOTE & hcan->Instance->sFIFOMailBox[FIFONumber].RIR;
 1398              		.loc 1 921 0
 1399 0158 2168     		ldr	r1, [r4]
 1400 015a 05F11B02 		add	r2, r5, #27
 1401 015e 1201     		lsls	r2, r2, #4
 1402 0160 8958     		ldr	r1, [r1, r2]
 1403 0162 01F00201 		and	r1, r1, #2
 1404 0166 D960     		str	r1, [r3, #12]
 922:Drivers/STM32F1xx_HAL_Driver/Src/stm32f1xx_hal_can.c ****   /* Get the DLC */
 923:Drivers/STM32F1xx_HAL_Driver/Src/stm32f1xx_hal_can.c ****   pRxMsg->DLC = (uint8_t)0x0FU & hcan->Instance->sFIFOMailBox[FIFONumber].RDTR;
 1405              		.loc 1 923 0
 1406 0168 2168     		ldr	r1, [r4]
 1407 016a 1144     		add	r1, r1, r2
 1408 016c 4968     		ldr	r1, [r1, #4]
 1409 016e 01F00F01 		and	r1, r1, #15
 1410 0172 1961     		str	r1, [r3, #16]
 924:Drivers/STM32F1xx_HAL_Driver/Src/stm32f1xx_hal_can.c ****   /* Get the FMI */
 925:Drivers/STM32F1xx_HAL_Driver/Src/stm32f1xx_hal_can.c ****   pRxMsg->FMI = (uint8_t)0xFFU & (hcan->Instance->sFIFOMailBox[FIFONumber].RDTR >> 8U);
 1411              		.loc 1 925 0
 1412 0174 2168     		ldr	r1, [r4]
 1413 0176 0A44     		add	r2, r2, r1
 1414 0178 5268     		ldr	r2, [r2, #4]
 1415 017a C2F30722 		ubfx	r2, r2, #8, #8
 1416 017e DA61     		str	r2, [r3, #28]
 926:Drivers/STM32F1xx_HAL_Driver/Src/stm32f1xx_hal_can.c ****   /* Get the FIFONumber */
 927:Drivers/STM32F1xx_HAL_Driver/Src/stm32f1xx_hal_can.c ****   pRxMsg->FIFONumber = FIFONumber;
 1417              		.loc 1 927 0
 1418 0180 1D62     		str	r5, [r3, #32]
 928:Drivers/STM32F1xx_HAL_Driver/Src/stm32f1xx_hal_can.c ****   /* Get the data field */
 929:Drivers/STM32F1xx_HAL_Driver/Src/stm32f1xx_hal_can.c ****   pRxMsg->Data[0] = (uint8_t)0xFFU & hcan->Instance->sFIFOMailBox[FIFONumber].RDLR;
 1419              		.loc 1 929 0
 1420 0182 2168     		ldr	r1, [r4]
 1421 0184 2A01     		lsls	r2, r5, #4
 1422 0186 1144     		add	r1, r1, r2
 1423 0188 D1F8B811 		ldr	r1, [r1, #440]
 1424 018c 1975     		strb	r1, [r3, #20]
 930:Drivers/STM32F1xx_HAL_Driver/Src/stm32f1xx_hal_can.c ****   pRxMsg->Data[1] = (uint8_t)0xFFU & (hcan->Instance->sFIFOMailBox[FIFONumber].RDLR >> 8U);
 1425              		.loc 1 930 0
 1426 018e 2168     		ldr	r1, [r4]
 1427 0190 1144     		add	r1, r1, r2
 1428 0192 D1F8B811 		ldr	r1, [r1, #440]
 1429 0196 090A     		lsrs	r1, r1, #8
 1430 0198 5975     		strb	r1, [r3, #21]
 931:Drivers/STM32F1xx_HAL_Driver/Src/stm32f1xx_hal_can.c ****   pRxMsg->Data[2] = (uint8_t)0xFFU & (hcan->Instance->sFIFOMailBox[FIFONumber].RDLR >> 16U);
 1431              		.loc 1 931 0
 1432 019a 2168     		ldr	r1, [r4]
 1433 019c 1144     		add	r1, r1, r2
 1434 019e D1F8B811 		ldr	r1, [r1, #440]
ARM GAS  /tmp/cc4XmUnq.s 			page 45


 1435 01a2 090C     		lsrs	r1, r1, #16
 1436 01a4 9975     		strb	r1, [r3, #22]
 932:Drivers/STM32F1xx_HAL_Driver/Src/stm32f1xx_hal_can.c ****   pRxMsg->Data[3] = (uint8_t)0xFFU & (hcan->Instance->sFIFOMailBox[FIFONumber].RDLR >> 24U);
 1437              		.loc 1 932 0
 1438 01a6 2168     		ldr	r1, [r4]
 1439 01a8 1144     		add	r1, r1, r2
 1440 01aa D1F8B811 		ldr	r1, [r1, #440]
 1441 01ae 090E     		lsrs	r1, r1, #24
 1442 01b0 D975     		strb	r1, [r3, #23]
 933:Drivers/STM32F1xx_HAL_Driver/Src/stm32f1xx_hal_can.c ****   pRxMsg->Data[4] = (uint8_t)0xFFU & hcan->Instance->sFIFOMailBox[FIFONumber].RDHR;
 1443              		.loc 1 933 0
 1444 01b2 2168     		ldr	r1, [r4]
 1445 01b4 1144     		add	r1, r1, r2
 1446 01b6 D1F8BC11 		ldr	r1, [r1, #444]
 1447 01ba 1976     		strb	r1, [r3, #24]
 934:Drivers/STM32F1xx_HAL_Driver/Src/stm32f1xx_hal_can.c ****   pRxMsg->Data[5] = (uint8_t)0xFFU & (hcan->Instance->sFIFOMailBox[FIFONumber].RDHR >> 8U);
 1448              		.loc 1 934 0
 1449 01bc 2168     		ldr	r1, [r4]
 1450 01be 1144     		add	r1, r1, r2
 1451 01c0 D1F8BC11 		ldr	r1, [r1, #444]
 1452 01c4 090A     		lsrs	r1, r1, #8
 1453 01c6 5976     		strb	r1, [r3, #25]
 935:Drivers/STM32F1xx_HAL_Driver/Src/stm32f1xx_hal_can.c ****   pRxMsg->Data[6] = (uint8_t)0xFFU & (hcan->Instance->sFIFOMailBox[FIFONumber].RDHR >> 16U);
 1454              		.loc 1 935 0
 1455 01c8 2168     		ldr	r1, [r4]
 1456 01ca 1144     		add	r1, r1, r2
 1457 01cc D1F8BC11 		ldr	r1, [r1, #444]
 1458 01d0 090C     		lsrs	r1, r1, #16
 1459 01d2 9976     		strb	r1, [r3, #26]
 936:Drivers/STM32F1xx_HAL_Driver/Src/stm32f1xx_hal_can.c ****   pRxMsg->Data[7] = (uint8_t)0xFFU & (hcan->Instance->sFIFOMailBox[FIFONumber].RDHR >> 24U);
 1460              		.loc 1 936 0
 1461 01d4 2168     		ldr	r1, [r4]
 1462 01d6 0A44     		add	r2, r2, r1
 1463 01d8 D2F8BC21 		ldr	r2, [r2, #444]
 1464 01dc 120E     		lsrs	r2, r2, #24
 1465 01de DA76     		strb	r2, [r3, #27]
 937:Drivers/STM32F1xx_HAL_Driver/Src/stm32f1xx_hal_can.c ****   
 938:Drivers/STM32F1xx_HAL_Driver/Src/stm32f1xx_hal_can.c ****   /* Release the FIFO */
 939:Drivers/STM32F1xx_HAL_Driver/Src/stm32f1xx_hal_can.c ****   if(FIFONumber == CAN_FIFO0)
 1466              		.loc 1 939 0
 1467 01e0 D5B9     		cbnz	r5, .L145
 940:Drivers/STM32F1xx_HAL_Driver/Src/stm32f1xx_hal_can.c ****   {
 941:Drivers/STM32F1xx_HAL_Driver/Src/stm32f1xx_hal_can.c ****     /* Release FIFO0 */
 942:Drivers/STM32F1xx_HAL_Driver/Src/stm32f1xx_hal_can.c ****     __HAL_CAN_FIFO_RELEASE(hcan, CAN_FIFO0);
 1468              		.loc 1 942 0
 1469 01e2 2368     		ldr	r3, [r4]
 1470              	.LVL88:
 1471 01e4 2022     		movs	r2, #32
 1472 01e6 DA60     		str	r2, [r3, #12]
 1473              	.L146:
 943:Drivers/STM32F1xx_HAL_Driver/Src/stm32f1xx_hal_can.c ****   }
 944:Drivers/STM32F1xx_HAL_Driver/Src/stm32f1xx_hal_can.c ****   else /* FIFONumber == CAN_FIFO1 */
 945:Drivers/STM32F1xx_HAL_Driver/Src/stm32f1xx_hal_can.c ****   {
 946:Drivers/STM32F1xx_HAL_Driver/Src/stm32f1xx_hal_can.c ****     /* Release FIFO1 */
 947:Drivers/STM32F1xx_HAL_Driver/Src/stm32f1xx_hal_can.c ****     __HAL_CAN_FIFO_RELEASE(hcan, CAN_FIFO1);
 948:Drivers/STM32F1xx_HAL_Driver/Src/stm32f1xx_hal_can.c ****   }
 949:Drivers/STM32F1xx_HAL_Driver/Src/stm32f1xx_hal_can.c ****   
ARM GAS  /tmp/cc4XmUnq.s 			page 46


 950:Drivers/STM32F1xx_HAL_Driver/Src/stm32f1xx_hal_can.c ****   /* Change CAN state */
 951:Drivers/STM32F1xx_HAL_Driver/Src/stm32f1xx_hal_can.c ****   if (FIFONumber == CAN_FIFO0)
 1474              		.loc 1 951 0
 1475 01e8 4DBB     		cbnz	r5, .L147
 952:Drivers/STM32F1xx_HAL_Driver/Src/stm32f1xx_hal_can.c ****   {
 953:Drivers/STM32F1xx_HAL_Driver/Src/stm32f1xx_hal_can.c ****     switch(hcan->State)
 1476              		.loc 1 953 0
 1477 01ea 94F83C30 		ldrb	r3, [r4, #60]	@ zero_extendqisi2
 1478 01ee DBB2     		uxtb	r3, r3
 1479 01f0 622B     		cmp	r3, #98
 1480 01f2 1CD0     		beq	.L149
 1481 01f4 722B     		cmp	r3, #114
 1482 01f6 1ED0     		beq	.L150
 1483 01f8 422B     		cmp	r3, #66
 1484 01fa 11D0     		beq	.L176
 954:Drivers/STM32F1xx_HAL_Driver/Src/stm32f1xx_hal_can.c ****     {
 955:Drivers/STM32F1xx_HAL_Driver/Src/stm32f1xx_hal_can.c ****       case(HAL_CAN_STATE_BUSY_TX_RX0):
 956:Drivers/STM32F1xx_HAL_Driver/Src/stm32f1xx_hal_can.c ****         hcan->State = HAL_CAN_STATE_BUSY_TX;
 957:Drivers/STM32F1xx_HAL_Driver/Src/stm32f1xx_hal_can.c ****         break;
 958:Drivers/STM32F1xx_HAL_Driver/Src/stm32f1xx_hal_can.c ****       case(HAL_CAN_STATE_BUSY_RX0_RX1):
 959:Drivers/STM32F1xx_HAL_Driver/Src/stm32f1xx_hal_can.c ****         hcan->State = HAL_CAN_STATE_BUSY_RX1;
 960:Drivers/STM32F1xx_HAL_Driver/Src/stm32f1xx_hal_can.c ****         break;
 961:Drivers/STM32F1xx_HAL_Driver/Src/stm32f1xx_hal_can.c ****       case(HAL_CAN_STATE_BUSY_TX_RX0_RX1):
 962:Drivers/STM32F1xx_HAL_Driver/Src/stm32f1xx_hal_can.c ****         hcan->State = HAL_CAN_STATE_BUSY_TX_RX1;
 963:Drivers/STM32F1xx_HAL_Driver/Src/stm32f1xx_hal_can.c ****         break;
 964:Drivers/STM32F1xx_HAL_Driver/Src/stm32f1xx_hal_can.c ****       default: /* HAL_CAN_STATE_BUSY_RX0 */
 965:Drivers/STM32F1xx_HAL_Driver/Src/stm32f1xx_hal_can.c ****         hcan->State = HAL_CAN_STATE_READY;
 1485              		.loc 1 965 0
 1486 01fc 0123     		movs	r3, #1
 1487 01fe 84F83C30 		strb	r3, [r4, #60]
 966:Drivers/STM32F1xx_HAL_Driver/Src/stm32f1xx_hal_can.c ****         break;
 1488              		.loc 1 966 0
 1489 0202 10E0     		b	.L152
 1490              	.LVL89:
 1491              	.L141:
 907:Drivers/STM32F1xx_HAL_Driver/Src/stm32f1xx_hal_can.c ****   }
 1492              		.loc 1 907 0
 1493 0204 A36B     		ldr	r3, [r4, #56]
 1494              	.LVL90:
 1495 0206 96E7     		b	.L142
 1496              	.L143:
 918:Drivers/STM32F1xx_HAL_Driver/Src/stm32f1xx_hal_can.c ****   }
 1497              		.loc 1 918 0
 1498 0208 2168     		ldr	r1, [r4]
 1499 020a 05F11B02 		add	r2, r5, #27
 1500 020e 1201     		lsls	r2, r2, #4
 1501 0210 8A58     		ldr	r2, [r1, r2]
 1502 0212 D208     		lsrs	r2, r2, #3
 1503 0214 5A60     		str	r2, [r3, #4]
 1504 0216 9FE7     		b	.L144
 1505              	.L145:
 947:Drivers/STM32F1xx_HAL_Driver/Src/stm32f1xx_hal_can.c ****   }
 1506              		.loc 1 947 0
 1507 0218 2368     		ldr	r3, [r4]
 1508              	.LVL91:
 1509 021a 2022     		movs	r2, #32
 1510 021c 1A61     		str	r2, [r3, #16]
ARM GAS  /tmp/cc4XmUnq.s 			page 47


 1511 021e E3E7     		b	.L146
 1512              	.L176:
 956:Drivers/STM32F1xx_HAL_Driver/Src/stm32f1xx_hal_can.c ****         break;
 1513              		.loc 1 956 0
 1514 0220 1223     		movs	r3, #18
 1515 0222 84F83C30 		strb	r3, [r4, #60]
 1516              	.L152:
 967:Drivers/STM32F1xx_HAL_Driver/Src/stm32f1xx_hal_can.c ****     }
 968:Drivers/STM32F1xx_HAL_Driver/Src/stm32f1xx_hal_can.c ****   }
 969:Drivers/STM32F1xx_HAL_Driver/Src/stm32f1xx_hal_can.c ****   else /* FIFONumber == CAN_FIFO1 */
 970:Drivers/STM32F1xx_HAL_Driver/Src/stm32f1xx_hal_can.c ****   {
 971:Drivers/STM32F1xx_HAL_Driver/Src/stm32f1xx_hal_can.c ****     switch(hcan->State)
 972:Drivers/STM32F1xx_HAL_Driver/Src/stm32f1xx_hal_can.c ****     {
 973:Drivers/STM32F1xx_HAL_Driver/Src/stm32f1xx_hal_can.c ****       case(HAL_CAN_STATE_BUSY_TX_RX1):
 974:Drivers/STM32F1xx_HAL_Driver/Src/stm32f1xx_hal_can.c ****         hcan->State = HAL_CAN_STATE_BUSY_TX;
 975:Drivers/STM32F1xx_HAL_Driver/Src/stm32f1xx_hal_can.c ****         break;
 976:Drivers/STM32F1xx_HAL_Driver/Src/stm32f1xx_hal_can.c ****       case(HAL_CAN_STATE_BUSY_RX0_RX1):
 977:Drivers/STM32F1xx_HAL_Driver/Src/stm32f1xx_hal_can.c ****         hcan->State = HAL_CAN_STATE_BUSY_RX0;
 978:Drivers/STM32F1xx_HAL_Driver/Src/stm32f1xx_hal_can.c ****         break;
 979:Drivers/STM32F1xx_HAL_Driver/Src/stm32f1xx_hal_can.c ****       case(HAL_CAN_STATE_BUSY_TX_RX0_RX1):
 980:Drivers/STM32F1xx_HAL_Driver/Src/stm32f1xx_hal_can.c ****         hcan->State = HAL_CAN_STATE_BUSY_TX_RX0;
 981:Drivers/STM32F1xx_HAL_Driver/Src/stm32f1xx_hal_can.c ****         break;
 982:Drivers/STM32F1xx_HAL_Driver/Src/stm32f1xx_hal_can.c ****       default: /* HAL_CAN_STATE_BUSY_RX1 */
 983:Drivers/STM32F1xx_HAL_Driver/Src/stm32f1xx_hal_can.c ****         hcan->State = HAL_CAN_STATE_READY;
 984:Drivers/STM32F1xx_HAL_Driver/Src/stm32f1xx_hal_can.c ****         break;
 985:Drivers/STM32F1xx_HAL_Driver/Src/stm32f1xx_hal_can.c ****     }
 986:Drivers/STM32F1xx_HAL_Driver/Src/stm32f1xx_hal_can.c ****   }
 987:Drivers/STM32F1xx_HAL_Driver/Src/stm32f1xx_hal_can.c **** 
 988:Drivers/STM32F1xx_HAL_Driver/Src/stm32f1xx_hal_can.c ****   /* Process unlocked */
 989:Drivers/STM32F1xx_HAL_Driver/Src/stm32f1xx_hal_can.c ****   __HAL_UNLOCK(hcan);
 1517              		.loc 1 989 0
 1518 0226 0020     		movs	r0, #0
 1519 0228 84F83D00 		strb	r0, [r4, #61]
 990:Drivers/STM32F1xx_HAL_Driver/Src/stm32f1xx_hal_can.c **** 
 991:Drivers/STM32F1xx_HAL_Driver/Src/stm32f1xx_hal_can.c ****   /* Return function status */
 992:Drivers/STM32F1xx_HAL_Driver/Src/stm32f1xx_hal_can.c ****   return HAL_OK;
 1520              		.loc 1 992 0
 1521 022c F8BD     		pop	{r3, r4, r5, r6, r7, pc}
 1522              	.LVL92:
 1523              	.L149:
 959:Drivers/STM32F1xx_HAL_Driver/Src/stm32f1xx_hal_can.c ****         break;
 1524              		.loc 1 959 0
 1525 022e 3223     		movs	r3, #50
 1526 0230 84F83C30 		strb	r3, [r4, #60]
 960:Drivers/STM32F1xx_HAL_Driver/Src/stm32f1xx_hal_can.c ****       case(HAL_CAN_STATE_BUSY_TX_RX0_RX1):
 1527              		.loc 1 960 0
 1528 0234 F7E7     		b	.L152
 1529              	.L150:
 962:Drivers/STM32F1xx_HAL_Driver/Src/stm32f1xx_hal_can.c ****         break;
 1530              		.loc 1 962 0
 1531 0236 5223     		movs	r3, #82
 1532 0238 84F83C30 		strb	r3, [r4, #60]
 963:Drivers/STM32F1xx_HAL_Driver/Src/stm32f1xx_hal_can.c ****       default: /* HAL_CAN_STATE_BUSY_RX0 */
 1533              		.loc 1 963 0
 1534 023c F3E7     		b	.L152
 1535              	.L147:
 971:Drivers/STM32F1xx_HAL_Driver/Src/stm32f1xx_hal_can.c ****     {
ARM GAS  /tmp/cc4XmUnq.s 			page 48


 1536              		.loc 1 971 0
 1537 023e 94F83C30 		ldrb	r3, [r4, #60]	@ zero_extendqisi2
 1538 0242 DBB2     		uxtb	r3, r3
 1539 0244 622B     		cmp	r3, #98
 1540 0246 0BD0     		beq	.L154
 1541 0248 722B     		cmp	r3, #114
 1542 024a 0DD0     		beq	.L155
 1543 024c 522B     		cmp	r3, #82
 1544 024e 03D0     		beq	.L177
 983:Drivers/STM32F1xx_HAL_Driver/Src/stm32f1xx_hal_can.c ****         break;
 1545              		.loc 1 983 0
 1546 0250 0123     		movs	r3, #1
 1547 0252 84F83C30 		strb	r3, [r4, #60]
 984:Drivers/STM32F1xx_HAL_Driver/Src/stm32f1xx_hal_can.c ****     }
 1548              		.loc 1 984 0
 1549 0256 E6E7     		b	.L152
 1550              	.L177:
 974:Drivers/STM32F1xx_HAL_Driver/Src/stm32f1xx_hal_can.c ****         break;
 1551              		.loc 1 974 0
 1552 0258 1223     		movs	r3, #18
 1553 025a 84F83C30 		strb	r3, [r4, #60]
 975:Drivers/STM32F1xx_HAL_Driver/Src/stm32f1xx_hal_can.c ****       case(HAL_CAN_STATE_BUSY_RX0_RX1):
 1554              		.loc 1 975 0
 1555 025e E2E7     		b	.L152
 1556              	.L154:
 977:Drivers/STM32F1xx_HAL_Driver/Src/stm32f1xx_hal_can.c ****         break;
 1557              		.loc 1 977 0
 1558 0260 2223     		movs	r3, #34
 1559 0262 84F83C30 		strb	r3, [r4, #60]
 978:Drivers/STM32F1xx_HAL_Driver/Src/stm32f1xx_hal_can.c ****       case(HAL_CAN_STATE_BUSY_TX_RX0_RX1):
 1560              		.loc 1 978 0
 1561 0266 DEE7     		b	.L152
 1562              	.L155:
 980:Drivers/STM32F1xx_HAL_Driver/Src/stm32f1xx_hal_can.c ****         break;
 1563              		.loc 1 980 0
 1564 0268 4223     		movs	r3, #66
 1565 026a 84F83C30 		strb	r3, [r4, #60]
 981:Drivers/STM32F1xx_HAL_Driver/Src/stm32f1xx_hal_can.c ****       default: /* HAL_CAN_STATE_BUSY_RX1 */
 1566              		.loc 1 981 0
 1567 026e DAE7     		b	.L152
 1568              	.LVL93:
 1569              	.L157:
 829:Drivers/STM32F1xx_HAL_Driver/Src/stm32f1xx_hal_can.c ****   }
 1570              		.loc 1 829 0
 1571 0270 0220     		movs	r0, #2
 1572              	.LVL94:
 1573 0272 F8BD     		pop	{r3, r4, r5, r6, r7, pc}
 1574              	.LVL95:
 1575              	.L158:
 1576 0274 0220     		movs	r0, #2
 1577              	.LVL96:
 1578 0276 F8BD     		pop	{r3, r4, r5, r6, r7, pc}
 1579              	.LVL97:
 1580              	.L159:
 1581 0278 0220     		movs	r0, #2
 1582              	.LVL98:
 1583 027a F8BD     		pop	{r3, r4, r5, r6, r7, pc}
ARM GAS  /tmp/cc4XmUnq.s 			page 49


 1584              	.LVL99:
 1585              	.L160:
 1586 027c 0220     		movs	r0, #2
 1587              	.LVL100:
 1588 027e F8BD     		pop	{r3, r4, r5, r6, r7, pc}
 1589              	.LVL101:
 1590              	.L161:
 838:Drivers/STM32F1xx_HAL_Driver/Src/stm32f1xx_hal_can.c ****   }
 1591              		.loc 1 838 0
 1592 0280 0220     		movs	r0, #2
 1593              	.LVL102:
 1594 0282 F8BD     		pop	{r3, r4, r5, r6, r7, pc}
 1595              	.LVL103:
 1596              	.L162:
 1597 0284 0220     		movs	r0, #2
 1598              	.LVL104:
 1599 0286 F8BD     		pop	{r3, r4, r5, r6, r7, pc}
 1600              	.LVL105:
 1601              	.L163:
 1602 0288 0220     		movs	r0, #2
 1603              	.LVL106:
 1604 028a F8BD     		pop	{r3, r4, r5, r6, r7, pc}
 1605              	.LVL107:
 1606              	.L165:
 842:Drivers/STM32F1xx_HAL_Driver/Src/stm32f1xx_hal_can.c **** 
 1607              		.loc 1 842 0
 1608 028c 0220     		movs	r0, #2
 1609              	.LVL108:
 993:Drivers/STM32F1xx_HAL_Driver/Src/stm32f1xx_hal_can.c **** }
 1610              		.loc 1 993 0
 1611 028e F8BD     		pop	{r3, r4, r5, r6, r7, pc}
 1612              		.cfi_endproc
 1613              	.LFE71:
 1615              		.section	.text.HAL_CAN_Receive_IT,"ax",%progbits
 1616              		.align	1
 1617              		.global	HAL_CAN_Receive_IT
 1618              		.syntax unified
 1619              		.thumb
 1620              		.thumb_func
 1621              		.fpu softvfp
 1623              	HAL_CAN_Receive_IT:
 1624              	.LFB72:
 994:Drivers/STM32F1xx_HAL_Driver/Src/stm32f1xx_hal_can.c **** 
 995:Drivers/STM32F1xx_HAL_Driver/Src/stm32f1xx_hal_can.c **** /**
 996:Drivers/STM32F1xx_HAL_Driver/Src/stm32f1xx_hal_can.c ****   * @brief  Receives a correct CAN frame.
 997:Drivers/STM32F1xx_HAL_Driver/Src/stm32f1xx_hal_can.c ****   * @param  hcan: pointer to a CAN_HandleTypeDef structure that contains
 998:Drivers/STM32F1xx_HAL_Driver/Src/stm32f1xx_hal_can.c ****   *         the configuration information for the specified CAN.  
 999:Drivers/STM32F1xx_HAL_Driver/Src/stm32f1xx_hal_can.c ****   * @param  FIFONumber: Specify the FIFO number    
1000:Drivers/STM32F1xx_HAL_Driver/Src/stm32f1xx_hal_can.c ****   * @retval HAL status
1001:Drivers/STM32F1xx_HAL_Driver/Src/stm32f1xx_hal_can.c ****   */
1002:Drivers/STM32F1xx_HAL_Driver/Src/stm32f1xx_hal_can.c **** HAL_StatusTypeDef HAL_CAN_Receive_IT(CAN_HandleTypeDef* hcan, uint8_t FIFONumber)
1003:Drivers/STM32F1xx_HAL_Driver/Src/stm32f1xx_hal_can.c **** {
 1625              		.loc 1 1003 0
 1626              		.cfi_startproc
 1627              		@ args = 0, pretend = 0, frame = 0
 1628              		@ frame_needed = 0, uses_anonymous_args = 0
 1629              		@ link register save eliminated.
ARM GAS  /tmp/cc4XmUnq.s 			page 50


 1630              	.LVL109:
1004:Drivers/STM32F1xx_HAL_Driver/Src/stm32f1xx_hal_can.c ****   /* Check the parameters */
1005:Drivers/STM32F1xx_HAL_Driver/Src/stm32f1xx_hal_can.c ****   assert_param(IS_CAN_FIFO(FIFONumber));
1006:Drivers/STM32F1xx_HAL_Driver/Src/stm32f1xx_hal_can.c ****   
1007:Drivers/STM32F1xx_HAL_Driver/Src/stm32f1xx_hal_can.c ****   /* Check if CAN state is not busy for RX FIFO0 */
1008:Drivers/STM32F1xx_HAL_Driver/Src/stm32f1xx_hal_can.c ****   if((FIFONumber == CAN_FIFO0) && ((hcan->State == HAL_CAN_STATE_BUSY_RX0) ||         \
 1631              		.loc 1 1008 0
 1632 0000 0B46     		mov	r3, r1
 1633 0002 99B9     		cbnz	r1, .L179
 1634              		.loc 1 1008 0 is_stmt 0 discriminator 1
 1635 0004 90F83C20 		ldrb	r2, [r0, #60]	@ zero_extendqisi2
 1636 0008 D2B2     		uxtb	r2, r2
 1637 000a 222A     		cmp	r2, #34
 1638 000c 7CD0     		beq	.L193
1009:Drivers/STM32F1xx_HAL_Driver/Src/stm32f1xx_hal_can.c ****                                    (hcan->State == HAL_CAN_STATE_BUSY_TX_RX0) ||      \
 1639              		.loc 1 1009 0 is_stmt 1 discriminator 2
 1640 000e 90F83C20 		ldrb	r2, [r0, #60]	@ zero_extendqisi2
 1641 0012 D2B2     		uxtb	r2, r2
1008:Drivers/STM32F1xx_HAL_Driver/Src/stm32f1xx_hal_can.c ****                                    (hcan->State == HAL_CAN_STATE_BUSY_TX_RX0) ||      \
 1642              		.loc 1 1008 0 discriminator 2
 1643 0014 422A     		cmp	r2, #66
 1644 0016 79D0     		beq	.L194
1010:Drivers/STM32F1xx_HAL_Driver/Src/stm32f1xx_hal_can.c ****                                    (hcan->State == HAL_CAN_STATE_BUSY_RX0_RX1) ||     \
 1645              		.loc 1 1010 0
 1646 0018 90F83C20 		ldrb	r2, [r0, #60]	@ zero_extendqisi2
 1647 001c D2B2     		uxtb	r2, r2
1009:Drivers/STM32F1xx_HAL_Driver/Src/stm32f1xx_hal_can.c ****                                    (hcan->State == HAL_CAN_STATE_BUSY_TX_RX0) ||      \
 1648              		.loc 1 1009 0
 1649 001e 622A     		cmp	r2, #98
 1650 0020 76D0     		beq	.L195
1011:Drivers/STM32F1xx_HAL_Driver/Src/stm32f1xx_hal_can.c ****                                    (hcan->State == HAL_CAN_STATE_BUSY_TX_RX0_RX1)))
 1651              		.loc 1 1011 0
 1652 0022 90F83C20 		ldrb	r2, [r0, #60]	@ zero_extendqisi2
 1653 0026 D2B2     		uxtb	r2, r2
1010:Drivers/STM32F1xx_HAL_Driver/Src/stm32f1xx_hal_can.c ****                                    (hcan->State == HAL_CAN_STATE_BUSY_RX0_RX1) ||     \
 1654              		.loc 1 1010 0
 1655 0028 722A     		cmp	r2, #114
 1656 002a 73D0     		beq	.L196
 1657              	.L179:
1012:Drivers/STM32F1xx_HAL_Driver/Src/stm32f1xx_hal_can.c ****   {
1013:Drivers/STM32F1xx_HAL_Driver/Src/stm32f1xx_hal_can.c ****     return HAL_BUSY;
1014:Drivers/STM32F1xx_HAL_Driver/Src/stm32f1xx_hal_can.c ****   }
1015:Drivers/STM32F1xx_HAL_Driver/Src/stm32f1xx_hal_can.c **** 
1016:Drivers/STM32F1xx_HAL_Driver/Src/stm32f1xx_hal_can.c ****   /* Check if CAN state is not busy for RX FIFO1 */
1017:Drivers/STM32F1xx_HAL_Driver/Src/stm32f1xx_hal_can.c ****   if((FIFONumber == CAN_FIFO1) && ((hcan->State == HAL_CAN_STATE_BUSY_RX1) ||         \
 1658              		.loc 1 1017 0
 1659 002c 012B     		cmp	r3, #1
 1660 002e 16D0     		beq	.L208
 1661              	.L181:
1018:Drivers/STM32F1xx_HAL_Driver/Src/stm32f1xx_hal_can.c ****                                    (hcan->State == HAL_CAN_STATE_BUSY_TX_RX1) ||      \
1019:Drivers/STM32F1xx_HAL_Driver/Src/stm32f1xx_hal_can.c ****                                    (hcan->State == HAL_CAN_STATE_BUSY_RX0_RX1) ||     \
1020:Drivers/STM32F1xx_HAL_Driver/Src/stm32f1xx_hal_can.c ****                                    (hcan->State == HAL_CAN_STATE_BUSY_TX_RX0_RX1)))
1021:Drivers/STM32F1xx_HAL_Driver/Src/stm32f1xx_hal_can.c ****   {
1022:Drivers/STM32F1xx_HAL_Driver/Src/stm32f1xx_hal_can.c ****     return HAL_BUSY;
1023:Drivers/STM32F1xx_HAL_Driver/Src/stm32f1xx_hal_can.c ****   }
1024:Drivers/STM32F1xx_HAL_Driver/Src/stm32f1xx_hal_can.c **** 
1025:Drivers/STM32F1xx_HAL_Driver/Src/stm32f1xx_hal_can.c ****   /* Process locked */
ARM GAS  /tmp/cc4XmUnq.s 			page 51


1026:Drivers/STM32F1xx_HAL_Driver/Src/stm32f1xx_hal_can.c ****   __HAL_LOCK(hcan);
 1662              		.loc 1 1026 0
 1663 0030 90F83D20 		ldrb	r2, [r0, #61]	@ zero_extendqisi2
 1664 0034 012A     		cmp	r2, #1
 1665 0036 75D0     		beq	.L201
1003:Drivers/STM32F1xx_HAL_Driver/Src/stm32f1xx_hal_can.c ****   /* Check the parameters */
 1666              		.loc 1 1003 0 discriminator 2
 1667 0038 10B4     		push	{r4}
 1668              	.LCFI13:
 1669              		.cfi_def_cfa_offset 4
 1670              		.cfi_offset 4, -4
 1671              		.loc 1 1026 0 discriminator 2
 1672 003a 0122     		movs	r2, #1
 1673 003c 80F83D20 		strb	r2, [r0, #61]
1027:Drivers/STM32F1xx_HAL_Driver/Src/stm32f1xx_hal_can.c **** 
1028:Drivers/STM32F1xx_HAL_Driver/Src/stm32f1xx_hal_can.c ****   /* Change CAN state */
1029:Drivers/STM32F1xx_HAL_Driver/Src/stm32f1xx_hal_can.c ****   if(FIFONumber == CAN_FIFO0)
 1674              		.loc 1 1029 0 discriminator 2
 1675 0040 002B     		cmp	r3, #0
 1676 0042 41D1     		bne	.L182
1030:Drivers/STM32F1xx_HAL_Driver/Src/stm32f1xx_hal_can.c ****   {
1031:Drivers/STM32F1xx_HAL_Driver/Src/stm32f1xx_hal_can.c ****     switch(hcan->State)
 1677              		.loc 1 1031 0
 1678 0044 90F83C20 		ldrb	r2, [r0, #60]	@ zero_extendqisi2
 1679 0048 D2B2     		uxtb	r2, r2
 1680 004a 322A     		cmp	r2, #50
 1681 004c 34D0     		beq	.L184
 1682 004e 522A     		cmp	r2, #82
 1683 0050 36D0     		beq	.L185
 1684 0052 122A     		cmp	r2, #18
 1685 0054 19D0     		beq	.L209
1032:Drivers/STM32F1xx_HAL_Driver/Src/stm32f1xx_hal_can.c ****     {
1033:Drivers/STM32F1xx_HAL_Driver/Src/stm32f1xx_hal_can.c ****       case(HAL_CAN_STATE_BUSY_TX):
1034:Drivers/STM32F1xx_HAL_Driver/Src/stm32f1xx_hal_can.c ****         hcan->State = HAL_CAN_STATE_BUSY_TX_RX0;
1035:Drivers/STM32F1xx_HAL_Driver/Src/stm32f1xx_hal_can.c ****         break;
1036:Drivers/STM32F1xx_HAL_Driver/Src/stm32f1xx_hal_can.c ****       case(HAL_CAN_STATE_BUSY_RX1):
1037:Drivers/STM32F1xx_HAL_Driver/Src/stm32f1xx_hal_can.c ****         hcan->State = HAL_CAN_STATE_BUSY_RX0_RX1;
1038:Drivers/STM32F1xx_HAL_Driver/Src/stm32f1xx_hal_can.c ****         break;
1039:Drivers/STM32F1xx_HAL_Driver/Src/stm32f1xx_hal_can.c ****       case(HAL_CAN_STATE_BUSY_TX_RX1):
1040:Drivers/STM32F1xx_HAL_Driver/Src/stm32f1xx_hal_can.c ****         hcan->State = HAL_CAN_STATE_BUSY_TX_RX0_RX1;
1041:Drivers/STM32F1xx_HAL_Driver/Src/stm32f1xx_hal_can.c ****         break;
1042:Drivers/STM32F1xx_HAL_Driver/Src/stm32f1xx_hal_can.c ****       default: /* HAL_CAN_STATE_READY */
1043:Drivers/STM32F1xx_HAL_Driver/Src/stm32f1xx_hal_can.c ****         hcan->State = HAL_CAN_STATE_BUSY_RX0;
 1686              		.loc 1 1043 0
 1687 0056 2222     		movs	r2, #34
 1688 0058 80F83C20 		strb	r2, [r0, #60]
1044:Drivers/STM32F1xx_HAL_Driver/Src/stm32f1xx_hal_can.c ****         break;
 1689              		.loc 1 1044 0
 1690 005c 18E0     		b	.L187
 1691              	.L208:
 1692              	.LCFI14:
 1693              		.cfi_def_cfa_offset 0
 1694              		.cfi_restore 4
1017:Drivers/STM32F1xx_HAL_Driver/Src/stm32f1xx_hal_can.c ****                                    (hcan->State == HAL_CAN_STATE_BUSY_TX_RX1) ||      \
 1695              		.loc 1 1017 0 discriminator 1
 1696 005e 90F83C20 		ldrb	r2, [r0, #60]	@ zero_extendqisi2
 1697 0062 D2B2     		uxtb	r2, r2
ARM GAS  /tmp/cc4XmUnq.s 			page 52


 1698 0064 322A     		cmp	r2, #50
 1699 0066 57D0     		beq	.L197
1018:Drivers/STM32F1xx_HAL_Driver/Src/stm32f1xx_hal_can.c ****                                    (hcan->State == HAL_CAN_STATE_BUSY_RX0_RX1) ||     \
 1700              		.loc 1 1018 0 discriminator 2
 1701 0068 90F83C20 		ldrb	r2, [r0, #60]	@ zero_extendqisi2
 1702 006c D2B2     		uxtb	r2, r2
1017:Drivers/STM32F1xx_HAL_Driver/Src/stm32f1xx_hal_can.c ****                                    (hcan->State == HAL_CAN_STATE_BUSY_TX_RX1) ||      \
 1703              		.loc 1 1017 0 discriminator 2
 1704 006e 522A     		cmp	r2, #82
 1705 0070 54D0     		beq	.L198
1019:Drivers/STM32F1xx_HAL_Driver/Src/stm32f1xx_hal_can.c ****                                    (hcan->State == HAL_CAN_STATE_BUSY_TX_RX0_RX1)))
 1706              		.loc 1 1019 0
 1707 0072 90F83C20 		ldrb	r2, [r0, #60]	@ zero_extendqisi2
 1708 0076 D2B2     		uxtb	r2, r2
1018:Drivers/STM32F1xx_HAL_Driver/Src/stm32f1xx_hal_can.c ****                                    (hcan->State == HAL_CAN_STATE_BUSY_RX0_RX1) ||     \
 1709              		.loc 1 1018 0
 1710 0078 622A     		cmp	r2, #98
 1711 007a 51D0     		beq	.L199
1020:Drivers/STM32F1xx_HAL_Driver/Src/stm32f1xx_hal_can.c ****   {
 1712              		.loc 1 1020 0
 1713 007c 90F83C20 		ldrb	r2, [r0, #60]	@ zero_extendqisi2
 1714 0080 D2B2     		uxtb	r2, r2
1019:Drivers/STM32F1xx_HAL_Driver/Src/stm32f1xx_hal_can.c ****                                    (hcan->State == HAL_CAN_STATE_BUSY_TX_RX0_RX1)))
 1715              		.loc 1 1019 0
 1716 0082 722A     		cmp	r2, #114
 1717 0084 D4D1     		bne	.L181
1022:Drivers/STM32F1xx_HAL_Driver/Src/stm32f1xx_hal_can.c ****   }
 1718              		.loc 1 1022 0
 1719 0086 0220     		movs	r0, #2
 1720              	.LVL110:
 1721 0088 7047     		bx	lr
 1722              	.LVL111:
 1723              	.L209:
 1724              	.LCFI15:
 1725              		.cfi_def_cfa_offset 4
 1726              		.cfi_offset 4, -4
1034:Drivers/STM32F1xx_HAL_Driver/Src/stm32f1xx_hal_can.c ****         break;
 1727              		.loc 1 1034 0
 1728 008a 4222     		movs	r2, #66
 1729 008c 80F83C20 		strb	r2, [r0, #60]
 1730              	.L187:
1045:Drivers/STM32F1xx_HAL_Driver/Src/stm32f1xx_hal_can.c ****     }
1046:Drivers/STM32F1xx_HAL_Driver/Src/stm32f1xx_hal_can.c ****   }
1047:Drivers/STM32F1xx_HAL_Driver/Src/stm32f1xx_hal_can.c ****   else /* FIFONumber == CAN_FIFO1 */
1048:Drivers/STM32F1xx_HAL_Driver/Src/stm32f1xx_hal_can.c ****   {
1049:Drivers/STM32F1xx_HAL_Driver/Src/stm32f1xx_hal_can.c ****     switch(hcan->State)
1050:Drivers/STM32F1xx_HAL_Driver/Src/stm32f1xx_hal_can.c ****     {
1051:Drivers/STM32F1xx_HAL_Driver/Src/stm32f1xx_hal_can.c ****       case(HAL_CAN_STATE_BUSY_TX):
1052:Drivers/STM32F1xx_HAL_Driver/Src/stm32f1xx_hal_can.c ****         hcan->State = HAL_CAN_STATE_BUSY_TX_RX1;
1053:Drivers/STM32F1xx_HAL_Driver/Src/stm32f1xx_hal_can.c ****         break;
1054:Drivers/STM32F1xx_HAL_Driver/Src/stm32f1xx_hal_can.c ****       case(HAL_CAN_STATE_BUSY_RX0):
1055:Drivers/STM32F1xx_HAL_Driver/Src/stm32f1xx_hal_can.c ****         hcan->State = HAL_CAN_STATE_BUSY_RX0_RX1;
1056:Drivers/STM32F1xx_HAL_Driver/Src/stm32f1xx_hal_can.c ****         break;
1057:Drivers/STM32F1xx_HAL_Driver/Src/stm32f1xx_hal_can.c ****       case(HAL_CAN_STATE_BUSY_TX_RX0):
1058:Drivers/STM32F1xx_HAL_Driver/Src/stm32f1xx_hal_can.c ****         hcan->State = HAL_CAN_STATE_BUSY_TX_RX0_RX1;
1059:Drivers/STM32F1xx_HAL_Driver/Src/stm32f1xx_hal_can.c ****         break;
1060:Drivers/STM32F1xx_HAL_Driver/Src/stm32f1xx_hal_can.c ****       default: /* HAL_CAN_STATE_READY */
ARM GAS  /tmp/cc4XmUnq.s 			page 53


1061:Drivers/STM32F1xx_HAL_Driver/Src/stm32f1xx_hal_can.c ****         hcan->State = HAL_CAN_STATE_BUSY_RX1;
1062:Drivers/STM32F1xx_HAL_Driver/Src/stm32f1xx_hal_can.c ****         break;
1063:Drivers/STM32F1xx_HAL_Driver/Src/stm32f1xx_hal_can.c ****     }
1064:Drivers/STM32F1xx_HAL_Driver/Src/stm32f1xx_hal_can.c ****   }
1065:Drivers/STM32F1xx_HAL_Driver/Src/stm32f1xx_hal_can.c ****   /* Set CAN error code to none */
1066:Drivers/STM32F1xx_HAL_Driver/Src/stm32f1xx_hal_can.c ****   hcan->ErrorCode = HAL_CAN_ERROR_NONE;
 1731              		.loc 1 1066 0
 1732 0090 0021     		movs	r1, #0
 1733              	.LVL112:
 1734 0092 0164     		str	r1, [r0, #64]
1067:Drivers/STM32F1xx_HAL_Driver/Src/stm32f1xx_hal_can.c **** 
1068:Drivers/STM32F1xx_HAL_Driver/Src/stm32f1xx_hal_can.c **** 
1069:Drivers/STM32F1xx_HAL_Driver/Src/stm32f1xx_hal_can.c ****   /* Enable interrupts: */
1070:Drivers/STM32F1xx_HAL_Driver/Src/stm32f1xx_hal_can.c ****   /*  - Enable Error warning Interrupt */
1071:Drivers/STM32F1xx_HAL_Driver/Src/stm32f1xx_hal_can.c ****   /*  - Enable Error passive Interrupt */
1072:Drivers/STM32F1xx_HAL_Driver/Src/stm32f1xx_hal_can.c ****   /*  - Enable Bus-off Interrupt */
1073:Drivers/STM32F1xx_HAL_Driver/Src/stm32f1xx_hal_can.c ****   /*  - Enable Last error code Interrupt */
1074:Drivers/STM32F1xx_HAL_Driver/Src/stm32f1xx_hal_can.c ****   /*  - Enable Error Interrupt */
1075:Drivers/STM32F1xx_HAL_Driver/Src/stm32f1xx_hal_can.c ****   /*  - Enable Transmit mailbox empty Interrupt */
1076:Drivers/STM32F1xx_HAL_Driver/Src/stm32f1xx_hal_can.c ****   __HAL_CAN_ENABLE_IT(hcan, CAN_IT_EWG |
 1735              		.loc 1 1076 0
 1736 0094 0468     		ldr	r4, [r0]
 1737 0096 6269     		ldr	r2, [r4, #20]
 1738 0098 42F40F42 		orr	r2, r2, #36608
 1739 009c 42F00102 		orr	r2, r2, #1
 1740 00a0 6261     		str	r2, [r4, #20]
1077:Drivers/STM32F1xx_HAL_Driver/Src/stm32f1xx_hal_can.c ****                             CAN_IT_EPV |
1078:Drivers/STM32F1xx_HAL_Driver/Src/stm32f1xx_hal_can.c ****                             CAN_IT_BOF |
1079:Drivers/STM32F1xx_HAL_Driver/Src/stm32f1xx_hal_can.c ****                             CAN_IT_LEC |
1080:Drivers/STM32F1xx_HAL_Driver/Src/stm32f1xx_hal_can.c ****                             CAN_IT_ERR |
1081:Drivers/STM32F1xx_HAL_Driver/Src/stm32f1xx_hal_can.c ****                             CAN_IT_TME  );
1082:Drivers/STM32F1xx_HAL_Driver/Src/stm32f1xx_hal_can.c ****   
1083:Drivers/STM32F1xx_HAL_Driver/Src/stm32f1xx_hal_can.c ****    /* Process unlocked */
1084:Drivers/STM32F1xx_HAL_Driver/Src/stm32f1xx_hal_can.c ****    __HAL_UNLOCK(hcan);
 1741              		.loc 1 1084 0
 1742 00a2 80F83D10 		strb	r1, [r0, #61]
1085:Drivers/STM32F1xx_HAL_Driver/Src/stm32f1xx_hal_can.c **** 
1086:Drivers/STM32F1xx_HAL_Driver/Src/stm32f1xx_hal_can.c ****   if(FIFONumber == CAN_FIFO0)
 1743              		.loc 1 1086 0
 1744 00a6 43B3     		cbz	r3, .L210
1087:Drivers/STM32F1xx_HAL_Driver/Src/stm32f1xx_hal_can.c ****   {
1088:Drivers/STM32F1xx_HAL_Driver/Src/stm32f1xx_hal_can.c ****     /* Enable FIFO 0 overrun and message pending Interrupt */
1089:Drivers/STM32F1xx_HAL_Driver/Src/stm32f1xx_hal_can.c ****     __HAL_CAN_ENABLE_IT(hcan, CAN_IT_FOV0 | CAN_IT_FMP0);
1090:Drivers/STM32F1xx_HAL_Driver/Src/stm32f1xx_hal_can.c ****   }
1091:Drivers/STM32F1xx_HAL_Driver/Src/stm32f1xx_hal_can.c ****   else
1092:Drivers/STM32F1xx_HAL_Driver/Src/stm32f1xx_hal_can.c ****   {
1093:Drivers/STM32F1xx_HAL_Driver/Src/stm32f1xx_hal_can.c ****     /* Enable FIFO 1 overrun and message pending Interrupt */
1094:Drivers/STM32F1xx_HAL_Driver/Src/stm32f1xx_hal_can.c ****     __HAL_CAN_ENABLE_IT(hcan, CAN_IT_FOV1 | CAN_IT_FMP1);
 1745              		.loc 1 1094 0
 1746 00a8 0268     		ldr	r2, [r0]
 1747 00aa 5369     		ldr	r3, [r2, #20]
 1748 00ac 43F05003 		orr	r3, r3, #80
 1749 00b0 5361     		str	r3, [r2, #20]
1095:Drivers/STM32F1xx_HAL_Driver/Src/stm32f1xx_hal_can.c ****   }
1096:Drivers/STM32F1xx_HAL_Driver/Src/stm32f1xx_hal_can.c **** 
1097:Drivers/STM32F1xx_HAL_Driver/Src/stm32f1xx_hal_can.c ****   /* Return function status */
1098:Drivers/STM32F1xx_HAL_Driver/Src/stm32f1xx_hal_can.c ****   return HAL_OK;
ARM GAS  /tmp/cc4XmUnq.s 			page 54


 1750              		.loc 1 1098 0
 1751 00b2 0020     		movs	r0, #0
 1752              	.LVL113:
 1753              	.L180:
1099:Drivers/STM32F1xx_HAL_Driver/Src/stm32f1xx_hal_can.c **** }
 1754              		.loc 1 1099 0
 1755 00b4 10BC     		pop	{r4}
 1756              	.LCFI16:
 1757              		.cfi_remember_state
 1758              		.cfi_restore 4
 1759              		.cfi_def_cfa_offset 0
 1760 00b6 7047     		bx	lr
 1761              	.LVL114:
 1762              	.L184:
 1763              	.LCFI17:
 1764              		.cfi_restore_state
1037:Drivers/STM32F1xx_HAL_Driver/Src/stm32f1xx_hal_can.c ****         break;
 1765              		.loc 1 1037 0
 1766 00b8 6222     		movs	r2, #98
 1767 00ba 80F83C20 		strb	r2, [r0, #60]
1038:Drivers/STM32F1xx_HAL_Driver/Src/stm32f1xx_hal_can.c ****       case(HAL_CAN_STATE_BUSY_TX_RX1):
 1768              		.loc 1 1038 0
 1769 00be E7E7     		b	.L187
 1770              	.L185:
1040:Drivers/STM32F1xx_HAL_Driver/Src/stm32f1xx_hal_can.c ****         break;
 1771              		.loc 1 1040 0
 1772 00c0 7222     		movs	r2, #114
 1773 00c2 80F83C20 		strb	r2, [r0, #60]
1041:Drivers/STM32F1xx_HAL_Driver/Src/stm32f1xx_hal_can.c ****       default: /* HAL_CAN_STATE_READY */
 1774              		.loc 1 1041 0
 1775 00c6 E3E7     		b	.L187
 1776              	.L182:
1049:Drivers/STM32F1xx_HAL_Driver/Src/stm32f1xx_hal_can.c ****     {
 1777              		.loc 1 1049 0
 1778 00c8 90F83C20 		ldrb	r2, [r0, #60]	@ zero_extendqisi2
 1779 00cc D2B2     		uxtb	r2, r2
 1780 00ce 222A     		cmp	r2, #34
 1781 00d0 0BD0     		beq	.L189
 1782 00d2 422A     		cmp	r2, #66
 1783 00d4 0DD0     		beq	.L190
 1784 00d6 122A     		cmp	r2, #18
 1785 00d8 03D0     		beq	.L211
1061:Drivers/STM32F1xx_HAL_Driver/Src/stm32f1xx_hal_can.c ****         break;
 1786              		.loc 1 1061 0
 1787 00da 3222     		movs	r2, #50
 1788 00dc 80F83C20 		strb	r2, [r0, #60]
1062:Drivers/STM32F1xx_HAL_Driver/Src/stm32f1xx_hal_can.c ****     }
 1789              		.loc 1 1062 0
 1790 00e0 D6E7     		b	.L187
 1791              	.L211:
1052:Drivers/STM32F1xx_HAL_Driver/Src/stm32f1xx_hal_can.c ****         break;
 1792              		.loc 1 1052 0
 1793 00e2 5222     		movs	r2, #82
 1794 00e4 80F83C20 		strb	r2, [r0, #60]
1053:Drivers/STM32F1xx_HAL_Driver/Src/stm32f1xx_hal_can.c ****       case(HAL_CAN_STATE_BUSY_RX0):
 1795              		.loc 1 1053 0
 1796 00e8 D2E7     		b	.L187
ARM GAS  /tmp/cc4XmUnq.s 			page 55


 1797              	.L189:
1055:Drivers/STM32F1xx_HAL_Driver/Src/stm32f1xx_hal_can.c ****         break;
 1798              		.loc 1 1055 0
 1799 00ea 6222     		movs	r2, #98
 1800 00ec 80F83C20 		strb	r2, [r0, #60]
1056:Drivers/STM32F1xx_HAL_Driver/Src/stm32f1xx_hal_can.c ****       case(HAL_CAN_STATE_BUSY_TX_RX0):
 1801              		.loc 1 1056 0
 1802 00f0 CEE7     		b	.L187
 1803              	.L190:
1058:Drivers/STM32F1xx_HAL_Driver/Src/stm32f1xx_hal_can.c ****         break;
 1804              		.loc 1 1058 0
 1805 00f2 7222     		movs	r2, #114
 1806 00f4 80F83C20 		strb	r2, [r0, #60]
1059:Drivers/STM32F1xx_HAL_Driver/Src/stm32f1xx_hal_can.c ****       default: /* HAL_CAN_STATE_READY */
 1807              		.loc 1 1059 0
 1808 00f8 CAE7     		b	.L187
 1809              	.LVL115:
 1810              	.L210:
1089:Drivers/STM32F1xx_HAL_Driver/Src/stm32f1xx_hal_can.c ****   }
 1811              		.loc 1 1089 0
 1812 00fa 0268     		ldr	r2, [r0]
 1813 00fc 5369     		ldr	r3, [r2, #20]
 1814 00fe 43F00A03 		orr	r3, r3, #10
 1815 0102 5361     		str	r3, [r2, #20]
1098:Drivers/STM32F1xx_HAL_Driver/Src/stm32f1xx_hal_can.c **** }
 1816              		.loc 1 1098 0
 1817 0104 0846     		mov	r0, r1
 1818              	.LVL116:
 1819 0106 D5E7     		b	.L180
 1820              	.LVL117:
 1821              	.L193:
 1822              	.LCFI18:
 1823              		.cfi_def_cfa_offset 0
 1824              		.cfi_restore 4
1013:Drivers/STM32F1xx_HAL_Driver/Src/stm32f1xx_hal_can.c ****   }
 1825              		.loc 1 1013 0
 1826 0108 0220     		movs	r0, #2
 1827              	.LVL118:
 1828 010a 7047     		bx	lr
 1829              	.LVL119:
 1830              	.L194:
 1831 010c 0220     		movs	r0, #2
 1832              	.LVL120:
 1833 010e 7047     		bx	lr
 1834              	.LVL121:
 1835              	.L195:
 1836 0110 0220     		movs	r0, #2
 1837              	.LVL122:
 1838 0112 7047     		bx	lr
 1839              	.LVL123:
 1840              	.L196:
 1841 0114 0220     		movs	r0, #2
 1842              	.LVL124:
 1843 0116 7047     		bx	lr
 1844              	.LVL125:
 1845              	.L197:
1022:Drivers/STM32F1xx_HAL_Driver/Src/stm32f1xx_hal_can.c ****   }
ARM GAS  /tmp/cc4XmUnq.s 			page 56


 1846              		.loc 1 1022 0
 1847 0118 0220     		movs	r0, #2
 1848              	.LVL126:
 1849 011a 7047     		bx	lr
 1850              	.LVL127:
 1851              	.L198:
 1852 011c 0220     		movs	r0, #2
 1853              	.LVL128:
 1854 011e 7047     		bx	lr
 1855              	.LVL129:
 1856              	.L199:
 1857 0120 0220     		movs	r0, #2
 1858              	.LVL130:
 1859 0122 7047     		bx	lr
 1860              	.LVL131:
 1861              	.L201:
1026:Drivers/STM32F1xx_HAL_Driver/Src/stm32f1xx_hal_can.c **** 
 1862              		.loc 1 1026 0
 1863 0124 0220     		movs	r0, #2
 1864              	.LVL132:
 1865 0126 7047     		bx	lr
 1866              		.cfi_endproc
 1867              	.LFE72:
 1869              		.section	.text.HAL_CAN_Sleep,"ax",%progbits
 1870              		.align	1
 1871              		.global	HAL_CAN_Sleep
 1872              		.syntax unified
 1873              		.thumb
 1874              		.thumb_func
 1875              		.fpu softvfp
 1877              	HAL_CAN_Sleep:
 1878              	.LFB73:
1100:Drivers/STM32F1xx_HAL_Driver/Src/stm32f1xx_hal_can.c **** 
1101:Drivers/STM32F1xx_HAL_Driver/Src/stm32f1xx_hal_can.c **** /**
1102:Drivers/STM32F1xx_HAL_Driver/Src/stm32f1xx_hal_can.c ****   * @brief  Enters the Sleep (low power) mode.
1103:Drivers/STM32F1xx_HAL_Driver/Src/stm32f1xx_hal_can.c ****   * @param  hcan: pointer to a CAN_HandleTypeDef structure that contains
1104:Drivers/STM32F1xx_HAL_Driver/Src/stm32f1xx_hal_can.c ****   *         the configuration information for the specified CAN.
1105:Drivers/STM32F1xx_HAL_Driver/Src/stm32f1xx_hal_can.c ****   * @retval HAL status.
1106:Drivers/STM32F1xx_HAL_Driver/Src/stm32f1xx_hal_can.c ****   */
1107:Drivers/STM32F1xx_HAL_Driver/Src/stm32f1xx_hal_can.c **** HAL_StatusTypeDef HAL_CAN_Sleep(CAN_HandleTypeDef* hcan)
1108:Drivers/STM32F1xx_HAL_Driver/Src/stm32f1xx_hal_can.c **** {
 1879              		.loc 1 1108 0
 1880              		.cfi_startproc
 1881              		@ args = 0, pretend = 0, frame = 0
 1882              		@ frame_needed = 0, uses_anonymous_args = 0
 1883              	.LVL133:
 1884 0000 38B5     		push	{r3, r4, r5, lr}
 1885              	.LCFI19:
 1886              		.cfi_def_cfa_offset 16
 1887              		.cfi_offset 3, -16
 1888              		.cfi_offset 4, -12
 1889              		.cfi_offset 5, -8
 1890              		.cfi_offset 14, -4
 1891              	.LVL134:
1109:Drivers/STM32F1xx_HAL_Driver/Src/stm32f1xx_hal_can.c ****   uint32_t tickstart = 0U;
1110:Drivers/STM32F1xx_HAL_Driver/Src/stm32f1xx_hal_can.c ****    
1111:Drivers/STM32F1xx_HAL_Driver/Src/stm32f1xx_hal_can.c ****   /* Process locked */
ARM GAS  /tmp/cc4XmUnq.s 			page 57


1112:Drivers/STM32F1xx_HAL_Driver/Src/stm32f1xx_hal_can.c ****   __HAL_LOCK(hcan);
 1892              		.loc 1 1112 0
 1893 0002 90F83D30 		ldrb	r3, [r0, #61]	@ zero_extendqisi2
 1894 0006 012B     		cmp	r3, #1
 1895 0008 3BD0     		beq	.L218
 1896              		.loc 1 1112 0 is_stmt 0 discriminator 2
 1897 000a 0123     		movs	r3, #1
 1898 000c 80F83D30 		strb	r3, [r0, #61]
1113:Drivers/STM32F1xx_HAL_Driver/Src/stm32f1xx_hal_can.c ****   
1114:Drivers/STM32F1xx_HAL_Driver/Src/stm32f1xx_hal_can.c ****   /* Change CAN state */
1115:Drivers/STM32F1xx_HAL_Driver/Src/stm32f1xx_hal_can.c ****   hcan->State = HAL_CAN_STATE_BUSY; 
 1899              		.loc 1 1115 0 is_stmt 1 discriminator 2
 1900 0010 0223     		movs	r3, #2
 1901 0012 80F83C30 		strb	r3, [r0, #60]
1116:Drivers/STM32F1xx_HAL_Driver/Src/stm32f1xx_hal_can.c ****     
1117:Drivers/STM32F1xx_HAL_Driver/Src/stm32f1xx_hal_can.c ****   /* Request Sleep mode */
1118:Drivers/STM32F1xx_HAL_Driver/Src/stm32f1xx_hal_can.c ****   MODIFY_REG(hcan->Instance->MCR,
 1902              		.loc 1 1118 0 discriminator 2
 1903 0016 0268     		ldr	r2, [r0]
 1904 0018 1368     		ldr	r3, [r2]
 1905 001a 23F00303 		bic	r3, r3, #3
 1906 001e 43F00203 		orr	r3, r3, #2
 1907 0022 1360     		str	r3, [r2]
1119:Drivers/STM32F1xx_HAL_Driver/Src/stm32f1xx_hal_can.c ****              CAN_MCR_INRQ       ,
1120:Drivers/STM32F1xx_HAL_Driver/Src/stm32f1xx_hal_can.c ****              CAN_MCR_SLEEP       );
1121:Drivers/STM32F1xx_HAL_Driver/Src/stm32f1xx_hal_can.c **** 
1122:Drivers/STM32F1xx_HAL_Driver/Src/stm32f1xx_hal_can.c ****   /* Sleep mode status */
1123:Drivers/STM32F1xx_HAL_Driver/Src/stm32f1xx_hal_can.c ****   if (HAL_IS_BIT_CLR(hcan->Instance->MSR, CAN_MSR_SLAK) ||
 1908              		.loc 1 1123 0 discriminator 2
 1909 0024 0368     		ldr	r3, [r0]
 1910 0026 5A68     		ldr	r2, [r3, #4]
 1911 0028 12F0020F 		tst	r2, #2
 1912 002c 03D0     		beq	.L214
1124:Drivers/STM32F1xx_HAL_Driver/Src/stm32f1xx_hal_can.c ****       HAL_IS_BIT_SET(hcan->Instance->MSR, CAN_MSR_INAK)   )
 1913              		.loc 1 1124 0 discriminator 1
 1914 002e 5B68     		ldr	r3, [r3, #4]
1123:Drivers/STM32F1xx_HAL_Driver/Src/stm32f1xx_hal_can.c ****       HAL_IS_BIT_SET(hcan->Instance->MSR, CAN_MSR_INAK)   )
 1915              		.loc 1 1123 0 discriminator 1
 1916 0030 13F0010F 		tst	r3, #1
 1917 0034 04D0     		beq	.L215
 1918              	.L214:
1125:Drivers/STM32F1xx_HAL_Driver/Src/stm32f1xx_hal_can.c ****   {
1126:Drivers/STM32F1xx_HAL_Driver/Src/stm32f1xx_hal_can.c ****     /* Process unlocked */
1127:Drivers/STM32F1xx_HAL_Driver/Src/stm32f1xx_hal_can.c ****     __HAL_UNLOCK(hcan);
 1919              		.loc 1 1127 0
 1920 0036 0023     		movs	r3, #0
 1921 0038 80F83D30 		strb	r3, [r0, #61]
1128:Drivers/STM32F1xx_HAL_Driver/Src/stm32f1xx_hal_can.c **** 
1129:Drivers/STM32F1xx_HAL_Driver/Src/stm32f1xx_hal_can.c ****     /* Return function status */
1130:Drivers/STM32F1xx_HAL_Driver/Src/stm32f1xx_hal_can.c ****     return HAL_ERROR;
 1922              		.loc 1 1130 0
 1923 003c 0120     		movs	r0, #1
 1924              	.LVL135:
 1925 003e 38BD     		pop	{r3, r4, r5, pc}
 1926              	.LVL136:
 1927              	.L215:
 1928 0040 0446     		mov	r4, r0
ARM GAS  /tmp/cc4XmUnq.s 			page 58


1131:Drivers/STM32F1xx_HAL_Driver/Src/stm32f1xx_hal_can.c ****   }
1132:Drivers/STM32F1xx_HAL_Driver/Src/stm32f1xx_hal_can.c ****   
1133:Drivers/STM32F1xx_HAL_Driver/Src/stm32f1xx_hal_can.c ****   /* Get tick */
1134:Drivers/STM32F1xx_HAL_Driver/Src/stm32f1xx_hal_can.c ****   tickstart = HAL_GetTick();
 1929              		.loc 1 1134 0
 1930 0042 FFF7FEFF 		bl	HAL_GetTick
 1931              	.LVL137:
 1932 0046 0546     		mov	r5, r0
 1933              	.LVL138:
1135:Drivers/STM32F1xx_HAL_Driver/Src/stm32f1xx_hal_can.c ****   
1136:Drivers/STM32F1xx_HAL_Driver/Src/stm32f1xx_hal_can.c ****   /* Wait the acknowledge */
1137:Drivers/STM32F1xx_HAL_Driver/Src/stm32f1xx_hal_can.c ****   while (HAL_IS_BIT_CLR(hcan->Instance->MSR, CAN_MSR_SLAK) ||
 1934              		.loc 1 1137 0
 1935 0048 04E0     		b	.L216
 1936              	.LVL139:
 1937              	.L217:
1138:Drivers/STM32F1xx_HAL_Driver/Src/stm32f1xx_hal_can.c ****          HAL_IS_BIT_SET(hcan->Instance->MSR, CAN_MSR_INAK))
1139:Drivers/STM32F1xx_HAL_Driver/Src/stm32f1xx_hal_can.c ****   {
1140:Drivers/STM32F1xx_HAL_Driver/Src/stm32f1xx_hal_can.c ****     if((HAL_GetTick()-tickstart) > CAN_TIMEOUT_VALUE)
 1938              		.loc 1 1140 0
 1939 004a FFF7FEFF 		bl	HAL_GetTick
 1940              	.LVL140:
 1941 004e 401B     		subs	r0, r0, r5
 1942 0050 0A28     		cmp	r0, #10
 1943 0052 0FD8     		bhi	.L220
 1944              	.L216:
1137:Drivers/STM32F1xx_HAL_Driver/Src/stm32f1xx_hal_can.c ****          HAL_IS_BIT_SET(hcan->Instance->MSR, CAN_MSR_INAK))
 1945              		.loc 1 1137 0
 1946 0054 2368     		ldr	r3, [r4]
 1947 0056 5A68     		ldr	r2, [r3, #4]
 1948 0058 12F0020F 		tst	r2, #2
 1949 005c F5D0     		beq	.L217
1138:Drivers/STM32F1xx_HAL_Driver/Src/stm32f1xx_hal_can.c ****          HAL_IS_BIT_SET(hcan->Instance->MSR, CAN_MSR_INAK))
 1950              		.loc 1 1138 0 discriminator 1
 1951 005e 5B68     		ldr	r3, [r3, #4]
1137:Drivers/STM32F1xx_HAL_Driver/Src/stm32f1xx_hal_can.c ****          HAL_IS_BIT_SET(hcan->Instance->MSR, CAN_MSR_INAK))
 1952              		.loc 1 1137 0 discriminator 1
 1953 0060 13F0010F 		tst	r3, #1
 1954 0064 F1D1     		bne	.L217
1141:Drivers/STM32F1xx_HAL_Driver/Src/stm32f1xx_hal_can.c ****     {
1142:Drivers/STM32F1xx_HAL_Driver/Src/stm32f1xx_hal_can.c ****       hcan->State = HAL_CAN_STATE_TIMEOUT;
1143:Drivers/STM32F1xx_HAL_Driver/Src/stm32f1xx_hal_can.c **** 
1144:Drivers/STM32F1xx_HAL_Driver/Src/stm32f1xx_hal_can.c ****       /* Process unlocked */
1145:Drivers/STM32F1xx_HAL_Driver/Src/stm32f1xx_hal_can.c ****       __HAL_UNLOCK(hcan);
1146:Drivers/STM32F1xx_HAL_Driver/Src/stm32f1xx_hal_can.c **** 
1147:Drivers/STM32F1xx_HAL_Driver/Src/stm32f1xx_hal_can.c ****       return HAL_TIMEOUT;
1148:Drivers/STM32F1xx_HAL_Driver/Src/stm32f1xx_hal_can.c ****     }
1149:Drivers/STM32F1xx_HAL_Driver/Src/stm32f1xx_hal_can.c ****   }
1150:Drivers/STM32F1xx_HAL_Driver/Src/stm32f1xx_hal_can.c ****   
1151:Drivers/STM32F1xx_HAL_Driver/Src/stm32f1xx_hal_can.c ****   /* Change CAN state */
1152:Drivers/STM32F1xx_HAL_Driver/Src/stm32f1xx_hal_can.c ****   hcan->State = HAL_CAN_STATE_READY;
 1955              		.loc 1 1152 0
 1956 0066 0123     		movs	r3, #1
 1957 0068 84F83C30 		strb	r3, [r4, #60]
1153:Drivers/STM32F1xx_HAL_Driver/Src/stm32f1xx_hal_can.c ****   
1154:Drivers/STM32F1xx_HAL_Driver/Src/stm32f1xx_hal_can.c ****   /* Process unlocked */
1155:Drivers/STM32F1xx_HAL_Driver/Src/stm32f1xx_hal_can.c ****   __HAL_UNLOCK(hcan);
ARM GAS  /tmp/cc4XmUnq.s 			page 59


 1958              		.loc 1 1155 0
 1959 006c 0020     		movs	r0, #0
 1960 006e 84F83D00 		strb	r0, [r4, #61]
1156:Drivers/STM32F1xx_HAL_Driver/Src/stm32f1xx_hal_can.c ****   
1157:Drivers/STM32F1xx_HAL_Driver/Src/stm32f1xx_hal_can.c ****   /* Return function status */
1158:Drivers/STM32F1xx_HAL_Driver/Src/stm32f1xx_hal_can.c ****   return HAL_OK;
 1961              		.loc 1 1158 0
 1962 0072 38BD     		pop	{r3, r4, r5, pc}
 1963              	.LVL141:
 1964              	.L220:
1142:Drivers/STM32F1xx_HAL_Driver/Src/stm32f1xx_hal_can.c **** 
 1965              		.loc 1 1142 0
 1966 0074 0320     		movs	r0, #3
 1967 0076 84F83C00 		strb	r0, [r4, #60]
1145:Drivers/STM32F1xx_HAL_Driver/Src/stm32f1xx_hal_can.c **** 
 1968              		.loc 1 1145 0
 1969 007a 0023     		movs	r3, #0
 1970 007c 84F83D30 		strb	r3, [r4, #61]
1147:Drivers/STM32F1xx_HAL_Driver/Src/stm32f1xx_hal_can.c ****     }
 1971              		.loc 1 1147 0
 1972 0080 38BD     		pop	{r3, r4, r5, pc}
 1973              	.LVL142:
 1974              	.L218:
1112:Drivers/STM32F1xx_HAL_Driver/Src/stm32f1xx_hal_can.c ****   
 1975              		.loc 1 1112 0
 1976 0082 0220     		movs	r0, #2
 1977              	.LVL143:
1159:Drivers/STM32F1xx_HAL_Driver/Src/stm32f1xx_hal_can.c **** }
 1978              		.loc 1 1159 0
 1979 0084 38BD     		pop	{r3, r4, r5, pc}
 1980              		.cfi_endproc
 1981              	.LFE73:
 1983              		.section	.text.HAL_CAN_WakeUp,"ax",%progbits
 1984              		.align	1
 1985              		.global	HAL_CAN_WakeUp
 1986              		.syntax unified
 1987              		.thumb
 1988              		.thumb_func
 1989              		.fpu softvfp
 1991              	HAL_CAN_WakeUp:
 1992              	.LFB74:
1160:Drivers/STM32F1xx_HAL_Driver/Src/stm32f1xx_hal_can.c **** 
1161:Drivers/STM32F1xx_HAL_Driver/Src/stm32f1xx_hal_can.c **** /**
1162:Drivers/STM32F1xx_HAL_Driver/Src/stm32f1xx_hal_can.c ****   * @brief  Wakes up the CAN peripheral from sleep mode, after that the CAN peripheral
1163:Drivers/STM32F1xx_HAL_Driver/Src/stm32f1xx_hal_can.c ****   *         is in the normal mode.
1164:Drivers/STM32F1xx_HAL_Driver/Src/stm32f1xx_hal_can.c ****   * @param  hcan: pointer to a CAN_HandleTypeDef structure that contains
1165:Drivers/STM32F1xx_HAL_Driver/Src/stm32f1xx_hal_can.c ****   *         the configuration information for the specified CAN.
1166:Drivers/STM32F1xx_HAL_Driver/Src/stm32f1xx_hal_can.c ****   * @retval HAL status.
1167:Drivers/STM32F1xx_HAL_Driver/Src/stm32f1xx_hal_can.c ****   */
1168:Drivers/STM32F1xx_HAL_Driver/Src/stm32f1xx_hal_can.c **** HAL_StatusTypeDef HAL_CAN_WakeUp(CAN_HandleTypeDef* hcan)
1169:Drivers/STM32F1xx_HAL_Driver/Src/stm32f1xx_hal_can.c **** {
 1993              		.loc 1 1169 0
 1994              		.cfi_startproc
 1995              		@ args = 0, pretend = 0, frame = 0
 1996              		@ frame_needed = 0, uses_anonymous_args = 0
 1997              	.LVL144:
 1998 0000 38B5     		push	{r3, r4, r5, lr}
ARM GAS  /tmp/cc4XmUnq.s 			page 60


 1999              	.LCFI20:
 2000              		.cfi_def_cfa_offset 16
 2001              		.cfi_offset 3, -16
 2002              		.cfi_offset 4, -12
 2003              		.cfi_offset 5, -8
 2004              		.cfi_offset 14, -4
 2005              	.LVL145:
1170:Drivers/STM32F1xx_HAL_Driver/Src/stm32f1xx_hal_can.c ****   uint32_t tickstart = 0U;
1171:Drivers/STM32F1xx_HAL_Driver/Src/stm32f1xx_hal_can.c ****     
1172:Drivers/STM32F1xx_HAL_Driver/Src/stm32f1xx_hal_can.c ****   /* Process locked */
1173:Drivers/STM32F1xx_HAL_Driver/Src/stm32f1xx_hal_can.c ****   __HAL_LOCK(hcan);
 2006              		.loc 1 1173 0
 2007 0002 90F83D30 		ldrb	r3, [r0, #61]	@ zero_extendqisi2
 2008 0006 012B     		cmp	r3, #1
 2009 0008 01D1     		bne	.L228
 2010 000a 0220     		movs	r0, #2
 2011              	.LVL146:
1174:Drivers/STM32F1xx_HAL_Driver/Src/stm32f1xx_hal_can.c ****   
1175:Drivers/STM32F1xx_HAL_Driver/Src/stm32f1xx_hal_can.c ****   /* Change CAN state */
1176:Drivers/STM32F1xx_HAL_Driver/Src/stm32f1xx_hal_can.c ****   hcan->State = HAL_CAN_STATE_BUSY;  
1177:Drivers/STM32F1xx_HAL_Driver/Src/stm32f1xx_hal_can.c ****  
1178:Drivers/STM32F1xx_HAL_Driver/Src/stm32f1xx_hal_can.c ****   /* Wake up request */
1179:Drivers/STM32F1xx_HAL_Driver/Src/stm32f1xx_hal_can.c ****   CLEAR_BIT(hcan->Instance->MCR, CAN_MCR_SLEEP);
1180:Drivers/STM32F1xx_HAL_Driver/Src/stm32f1xx_hal_can.c ****     
1181:Drivers/STM32F1xx_HAL_Driver/Src/stm32f1xx_hal_can.c ****   /* Get timeout */
1182:Drivers/STM32F1xx_HAL_Driver/Src/stm32f1xx_hal_can.c ****   tickstart = HAL_GetTick();   
1183:Drivers/STM32F1xx_HAL_Driver/Src/stm32f1xx_hal_can.c ****   
1184:Drivers/STM32F1xx_HAL_Driver/Src/stm32f1xx_hal_can.c ****   /* Sleep mode status */
1185:Drivers/STM32F1xx_HAL_Driver/Src/stm32f1xx_hal_can.c ****   while((hcan->Instance->MSR & CAN_MSR_SLAK) == CAN_MSR_SLAK)
1186:Drivers/STM32F1xx_HAL_Driver/Src/stm32f1xx_hal_can.c ****   {
1187:Drivers/STM32F1xx_HAL_Driver/Src/stm32f1xx_hal_can.c ****     if((HAL_GetTick()-tickstart) > CAN_TIMEOUT_VALUE)
1188:Drivers/STM32F1xx_HAL_Driver/Src/stm32f1xx_hal_can.c ****     {
1189:Drivers/STM32F1xx_HAL_Driver/Src/stm32f1xx_hal_can.c ****       hcan->State= HAL_CAN_STATE_TIMEOUT;
1190:Drivers/STM32F1xx_HAL_Driver/Src/stm32f1xx_hal_can.c ****       /* Process unlocked */
1191:Drivers/STM32F1xx_HAL_Driver/Src/stm32f1xx_hal_can.c ****       __HAL_UNLOCK(hcan);
1192:Drivers/STM32F1xx_HAL_Driver/Src/stm32f1xx_hal_can.c ****       return HAL_TIMEOUT;
1193:Drivers/STM32F1xx_HAL_Driver/Src/stm32f1xx_hal_can.c ****     }
1194:Drivers/STM32F1xx_HAL_Driver/Src/stm32f1xx_hal_can.c ****   }
1195:Drivers/STM32F1xx_HAL_Driver/Src/stm32f1xx_hal_can.c ****   if(HAL_IS_BIT_SET(hcan->Instance->MSR, CAN_MSR_SLAK))
1196:Drivers/STM32F1xx_HAL_Driver/Src/stm32f1xx_hal_can.c ****   {
1197:Drivers/STM32F1xx_HAL_Driver/Src/stm32f1xx_hal_can.c ****     /* Process unlocked */
1198:Drivers/STM32F1xx_HAL_Driver/Src/stm32f1xx_hal_can.c ****     __HAL_UNLOCK(hcan);
1199:Drivers/STM32F1xx_HAL_Driver/Src/stm32f1xx_hal_can.c **** 
1200:Drivers/STM32F1xx_HAL_Driver/Src/stm32f1xx_hal_can.c ****     /* Return function status */
1201:Drivers/STM32F1xx_HAL_Driver/Src/stm32f1xx_hal_can.c ****     return HAL_ERROR;
1202:Drivers/STM32F1xx_HAL_Driver/Src/stm32f1xx_hal_can.c ****   }
1203:Drivers/STM32F1xx_HAL_Driver/Src/stm32f1xx_hal_can.c ****   
1204:Drivers/STM32F1xx_HAL_Driver/Src/stm32f1xx_hal_can.c ****   /* Change CAN state */
1205:Drivers/STM32F1xx_HAL_Driver/Src/stm32f1xx_hal_can.c ****   hcan->State = HAL_CAN_STATE_READY; 
1206:Drivers/STM32F1xx_HAL_Driver/Src/stm32f1xx_hal_can.c ****   
1207:Drivers/STM32F1xx_HAL_Driver/Src/stm32f1xx_hal_can.c ****   /* Process unlocked */
1208:Drivers/STM32F1xx_HAL_Driver/Src/stm32f1xx_hal_can.c ****   __HAL_UNLOCK(hcan);
1209:Drivers/STM32F1xx_HAL_Driver/Src/stm32f1xx_hal_can.c ****   
1210:Drivers/STM32F1xx_HAL_Driver/Src/stm32f1xx_hal_can.c ****   /* Return function status */
1211:Drivers/STM32F1xx_HAL_Driver/Src/stm32f1xx_hal_can.c ****   return HAL_OK;
1212:Drivers/STM32F1xx_HAL_Driver/Src/stm32f1xx_hal_can.c **** }
 2012              		.loc 1 1212 0
ARM GAS  /tmp/cc4XmUnq.s 			page 61


 2013 000c 38BD     		pop	{r3, r4, r5, pc}
 2014              	.LVL147:
 2015              	.L228:
 2016 000e 0446     		mov	r4, r0
1173:Drivers/STM32F1xx_HAL_Driver/Src/stm32f1xx_hal_can.c ****   
 2017              		.loc 1 1173 0 discriminator 2
 2018 0010 0123     		movs	r3, #1
 2019 0012 80F83D30 		strb	r3, [r0, #61]
1176:Drivers/STM32F1xx_HAL_Driver/Src/stm32f1xx_hal_can.c ****  
 2020              		.loc 1 1176 0 discriminator 2
 2021 0016 0223     		movs	r3, #2
 2022 0018 80F83C30 		strb	r3, [r0, #60]
1179:Drivers/STM32F1xx_HAL_Driver/Src/stm32f1xx_hal_can.c ****     
 2023              		.loc 1 1179 0 discriminator 2
 2024 001c 0268     		ldr	r2, [r0]
 2025 001e 1368     		ldr	r3, [r2]
 2026 0020 23F00203 		bic	r3, r3, #2
 2027 0024 1360     		str	r3, [r2]
1182:Drivers/STM32F1xx_HAL_Driver/Src/stm32f1xx_hal_can.c ****   
 2028              		.loc 1 1182 0 discriminator 2
 2029 0026 FFF7FEFF 		bl	HAL_GetTick
 2030              	.LVL148:
 2031 002a 0546     		mov	r5, r0
 2032              	.LVL149:
 2033              	.L223:
1185:Drivers/STM32F1xx_HAL_Driver/Src/stm32f1xx_hal_can.c ****   {
 2034              		.loc 1 1185 0
 2035 002c 2368     		ldr	r3, [r4]
 2036 002e 5A68     		ldr	r2, [r3, #4]
 2037 0030 12F0020F 		tst	r2, #2
 2038 0034 0BD0     		beq	.L229
1187:Drivers/STM32F1xx_HAL_Driver/Src/stm32f1xx_hal_can.c ****     {
 2039              		.loc 1 1187 0
 2040 0036 FFF7FEFF 		bl	HAL_GetTick
 2041              	.LVL150:
 2042 003a 401B     		subs	r0, r0, r5
 2043 003c 0A28     		cmp	r0, #10
 2044 003e F5D9     		bls	.L223
1189:Drivers/STM32F1xx_HAL_Driver/Src/stm32f1xx_hal_can.c ****       /* Process unlocked */
 2045              		.loc 1 1189 0
 2046 0040 0320     		movs	r0, #3
 2047 0042 84F83C00 		strb	r0, [r4, #60]
1191:Drivers/STM32F1xx_HAL_Driver/Src/stm32f1xx_hal_can.c ****       return HAL_TIMEOUT;
 2048              		.loc 1 1191 0
 2049 0046 0023     		movs	r3, #0
 2050 0048 84F83D30 		strb	r3, [r4, #61]
1192:Drivers/STM32F1xx_HAL_Driver/Src/stm32f1xx_hal_can.c ****     }
 2051              		.loc 1 1192 0
 2052 004c 38BD     		pop	{r3, r4, r5, pc}
 2053              	.LVL151:
 2054              	.L229:
1195:Drivers/STM32F1xx_HAL_Driver/Src/stm32f1xx_hal_can.c ****   {
 2055              		.loc 1 1195 0
 2056 004e 5B68     		ldr	r3, [r3, #4]
 2057 0050 13F0020F 		tst	r3, #2
 2058 0054 06D1     		bne	.L230
1205:Drivers/STM32F1xx_HAL_Driver/Src/stm32f1xx_hal_can.c ****   
ARM GAS  /tmp/cc4XmUnq.s 			page 62


 2059              		.loc 1 1205 0
 2060 0056 0123     		movs	r3, #1
 2061 0058 84F83C30 		strb	r3, [r4, #60]
1208:Drivers/STM32F1xx_HAL_Driver/Src/stm32f1xx_hal_can.c ****   
 2062              		.loc 1 1208 0
 2063 005c 0020     		movs	r0, #0
 2064 005e 84F83D00 		strb	r0, [r4, #61]
1211:Drivers/STM32F1xx_HAL_Driver/Src/stm32f1xx_hal_can.c **** }
 2065              		.loc 1 1211 0
 2066 0062 38BD     		pop	{r3, r4, r5, pc}
 2067              	.LVL152:
 2068              	.L230:
1198:Drivers/STM32F1xx_HAL_Driver/Src/stm32f1xx_hal_can.c **** 
 2069              		.loc 1 1198 0
 2070 0064 0023     		movs	r3, #0
 2071 0066 84F83D30 		strb	r3, [r4, #61]
1201:Drivers/STM32F1xx_HAL_Driver/Src/stm32f1xx_hal_can.c ****   }
 2072              		.loc 1 1201 0
 2073 006a 0120     		movs	r0, #1
 2074 006c 38BD     		pop	{r3, r4, r5, pc}
 2075              		.cfi_endproc
 2076              	.LFE74:
 2078              		.section	.text.HAL_CAN_TxCpltCallback,"ax",%progbits
 2079              		.align	1
 2080              		.weak	HAL_CAN_TxCpltCallback
 2081              		.syntax unified
 2082              		.thumb
 2083              		.thumb_func
 2084              		.fpu softvfp
 2086              	HAL_CAN_TxCpltCallback:
 2087              	.LFB76:
1213:Drivers/STM32F1xx_HAL_Driver/Src/stm32f1xx_hal_can.c **** 
1214:Drivers/STM32F1xx_HAL_Driver/Src/stm32f1xx_hal_can.c **** /**
1215:Drivers/STM32F1xx_HAL_Driver/Src/stm32f1xx_hal_can.c ****   * @brief  Handles CAN interrupt request  
1216:Drivers/STM32F1xx_HAL_Driver/Src/stm32f1xx_hal_can.c ****   * @param  hcan: pointer to a CAN_HandleTypeDef structure that contains
1217:Drivers/STM32F1xx_HAL_Driver/Src/stm32f1xx_hal_can.c ****   *         the configuration information for the specified CAN.
1218:Drivers/STM32F1xx_HAL_Driver/Src/stm32f1xx_hal_can.c ****   * @retval None
1219:Drivers/STM32F1xx_HAL_Driver/Src/stm32f1xx_hal_can.c ****   */
1220:Drivers/STM32F1xx_HAL_Driver/Src/stm32f1xx_hal_can.c **** void HAL_CAN_IRQHandler(CAN_HandleTypeDef* hcan)
1221:Drivers/STM32F1xx_HAL_Driver/Src/stm32f1xx_hal_can.c **** {
1222:Drivers/STM32F1xx_HAL_Driver/Src/stm32f1xx_hal_can.c ****   uint32_t tmp1 = 0U, tmp2 = 0U, tmp3 = 0U;
1223:Drivers/STM32F1xx_HAL_Driver/Src/stm32f1xx_hal_can.c ****   uint32_t errorcode = HAL_CAN_ERROR_NONE;
1224:Drivers/STM32F1xx_HAL_Driver/Src/stm32f1xx_hal_can.c **** 
1225:Drivers/STM32F1xx_HAL_Driver/Src/stm32f1xx_hal_can.c ****   /* Check Overrun flag for FIFO0 */
1226:Drivers/STM32F1xx_HAL_Driver/Src/stm32f1xx_hal_can.c ****   tmp1 = __HAL_CAN_GET_FLAG(hcan, CAN_FLAG_FOV0);
1227:Drivers/STM32F1xx_HAL_Driver/Src/stm32f1xx_hal_can.c ****   tmp2 = __HAL_CAN_GET_IT_SOURCE(hcan, CAN_IT_FOV0);
1228:Drivers/STM32F1xx_HAL_Driver/Src/stm32f1xx_hal_can.c ****   if((tmp1 != 0U) && tmp2)
1229:Drivers/STM32F1xx_HAL_Driver/Src/stm32f1xx_hal_can.c ****   {
1230:Drivers/STM32F1xx_HAL_Driver/Src/stm32f1xx_hal_can.c ****     /* Set CAN error code to FOV0 error */
1231:Drivers/STM32F1xx_HAL_Driver/Src/stm32f1xx_hal_can.c ****     errorcode |= HAL_CAN_ERROR_FOV0;
1232:Drivers/STM32F1xx_HAL_Driver/Src/stm32f1xx_hal_can.c **** 
1233:Drivers/STM32F1xx_HAL_Driver/Src/stm32f1xx_hal_can.c ****     /* Clear FIFO0 Overrun Flag */
1234:Drivers/STM32F1xx_HAL_Driver/Src/stm32f1xx_hal_can.c ****     __HAL_CAN_CLEAR_FLAG(hcan, CAN_FLAG_FOV0);
1235:Drivers/STM32F1xx_HAL_Driver/Src/stm32f1xx_hal_can.c ****   }
1236:Drivers/STM32F1xx_HAL_Driver/Src/stm32f1xx_hal_can.c **** 
1237:Drivers/STM32F1xx_HAL_Driver/Src/stm32f1xx_hal_can.c ****   /* Check Overrun flag for FIFO1 */
1238:Drivers/STM32F1xx_HAL_Driver/Src/stm32f1xx_hal_can.c ****   tmp1 = __HAL_CAN_GET_FLAG(hcan, CAN_FLAG_FOV1);
ARM GAS  /tmp/cc4XmUnq.s 			page 63


1239:Drivers/STM32F1xx_HAL_Driver/Src/stm32f1xx_hal_can.c ****   tmp2 = __HAL_CAN_GET_IT_SOURCE(hcan, CAN_IT_FOV1);
1240:Drivers/STM32F1xx_HAL_Driver/Src/stm32f1xx_hal_can.c ****   if((tmp1 != 0U) && tmp2)
1241:Drivers/STM32F1xx_HAL_Driver/Src/stm32f1xx_hal_can.c ****   {
1242:Drivers/STM32F1xx_HAL_Driver/Src/stm32f1xx_hal_can.c ****     /* Set CAN error code to FOV1 error */
1243:Drivers/STM32F1xx_HAL_Driver/Src/stm32f1xx_hal_can.c ****     errorcode |= HAL_CAN_ERROR_FOV1;
1244:Drivers/STM32F1xx_HAL_Driver/Src/stm32f1xx_hal_can.c **** 
1245:Drivers/STM32F1xx_HAL_Driver/Src/stm32f1xx_hal_can.c ****     /* Clear FIFO1 Overrun Flag */
1246:Drivers/STM32F1xx_HAL_Driver/Src/stm32f1xx_hal_can.c ****     __HAL_CAN_CLEAR_FLAG(hcan, CAN_FLAG_FOV1);
1247:Drivers/STM32F1xx_HAL_Driver/Src/stm32f1xx_hal_can.c ****   }
1248:Drivers/STM32F1xx_HAL_Driver/Src/stm32f1xx_hal_can.c **** 
1249:Drivers/STM32F1xx_HAL_Driver/Src/stm32f1xx_hal_can.c ****   /* Check End of transmission flag */
1250:Drivers/STM32F1xx_HAL_Driver/Src/stm32f1xx_hal_can.c ****   if(__HAL_CAN_GET_IT_SOURCE(hcan, CAN_IT_TME))
1251:Drivers/STM32F1xx_HAL_Driver/Src/stm32f1xx_hal_can.c ****   {
1252:Drivers/STM32F1xx_HAL_Driver/Src/stm32f1xx_hal_can.c ****     /* Check Transmit request completion status */
1253:Drivers/STM32F1xx_HAL_Driver/Src/stm32f1xx_hal_can.c ****     tmp1 = __HAL_CAN_TRANSMIT_STATUS(hcan, CAN_TXMAILBOX_0);
1254:Drivers/STM32F1xx_HAL_Driver/Src/stm32f1xx_hal_can.c ****     tmp2 = __HAL_CAN_TRANSMIT_STATUS(hcan, CAN_TXMAILBOX_1);
1255:Drivers/STM32F1xx_HAL_Driver/Src/stm32f1xx_hal_can.c ****     tmp3 = __HAL_CAN_TRANSMIT_STATUS(hcan, CAN_TXMAILBOX_2);
1256:Drivers/STM32F1xx_HAL_Driver/Src/stm32f1xx_hal_can.c ****     if(tmp1 || tmp2 || tmp3)  
1257:Drivers/STM32F1xx_HAL_Driver/Src/stm32f1xx_hal_can.c ****     {
1258:Drivers/STM32F1xx_HAL_Driver/Src/stm32f1xx_hal_can.c ****       tmp1 = __HAL_CAN_GET_FLAG(hcan, CAN_FLAG_TXOK0);
1259:Drivers/STM32F1xx_HAL_Driver/Src/stm32f1xx_hal_can.c ****       tmp2 = __HAL_CAN_GET_FLAG(hcan, CAN_FLAG_TXOK1);
1260:Drivers/STM32F1xx_HAL_Driver/Src/stm32f1xx_hal_can.c ****       tmp3 = __HAL_CAN_GET_FLAG(hcan, CAN_FLAG_TXOK2);
1261:Drivers/STM32F1xx_HAL_Driver/Src/stm32f1xx_hal_can.c ****       /* Check Transmit success */
1262:Drivers/STM32F1xx_HAL_Driver/Src/stm32f1xx_hal_can.c ****       if((tmp1) || (tmp2) || (tmp3))
1263:Drivers/STM32F1xx_HAL_Driver/Src/stm32f1xx_hal_can.c ****       {
1264:Drivers/STM32F1xx_HAL_Driver/Src/stm32f1xx_hal_can.c ****         /* Call transmit function */
1265:Drivers/STM32F1xx_HAL_Driver/Src/stm32f1xx_hal_can.c ****         CAN_Transmit_IT(hcan);
1266:Drivers/STM32F1xx_HAL_Driver/Src/stm32f1xx_hal_can.c ****       }
1267:Drivers/STM32F1xx_HAL_Driver/Src/stm32f1xx_hal_can.c ****       else /* Transmit failure */
1268:Drivers/STM32F1xx_HAL_Driver/Src/stm32f1xx_hal_can.c ****       {
1269:Drivers/STM32F1xx_HAL_Driver/Src/stm32f1xx_hal_can.c ****         /* Set CAN error code to TXFAIL error */
1270:Drivers/STM32F1xx_HAL_Driver/Src/stm32f1xx_hal_can.c ****         errorcode |= HAL_CAN_ERROR_TXFAIL;
1271:Drivers/STM32F1xx_HAL_Driver/Src/stm32f1xx_hal_can.c ****       }
1272:Drivers/STM32F1xx_HAL_Driver/Src/stm32f1xx_hal_can.c **** 
1273:Drivers/STM32F1xx_HAL_Driver/Src/stm32f1xx_hal_can.c ****       /* Clear transmission status flags (RQCPx and TXOKx) */
1274:Drivers/STM32F1xx_HAL_Driver/Src/stm32f1xx_hal_can.c ****       SET_BIT(hcan->Instance->TSR, CAN_TSR_RQCP0  | CAN_TSR_RQCP1  | CAN_TSR_RQCP2 | \
1275:Drivers/STM32F1xx_HAL_Driver/Src/stm32f1xx_hal_can.c ****                                    CAN_FLAG_TXOK0 | CAN_FLAG_TXOK1 | CAN_FLAG_TXOK2);
1276:Drivers/STM32F1xx_HAL_Driver/Src/stm32f1xx_hal_can.c ****     }
1277:Drivers/STM32F1xx_HAL_Driver/Src/stm32f1xx_hal_can.c ****   }
1278:Drivers/STM32F1xx_HAL_Driver/Src/stm32f1xx_hal_can.c ****   
1279:Drivers/STM32F1xx_HAL_Driver/Src/stm32f1xx_hal_can.c ****   tmp1 = __HAL_CAN_MSG_PENDING(hcan, CAN_FIFO0);
1280:Drivers/STM32F1xx_HAL_Driver/Src/stm32f1xx_hal_can.c ****   tmp2 = __HAL_CAN_GET_IT_SOURCE(hcan, CAN_IT_FMP0);
1281:Drivers/STM32F1xx_HAL_Driver/Src/stm32f1xx_hal_can.c ****   /* Check End of reception flag for FIFO0 */
1282:Drivers/STM32F1xx_HAL_Driver/Src/stm32f1xx_hal_can.c ****   if((tmp1 != 0U) && tmp2)
1283:Drivers/STM32F1xx_HAL_Driver/Src/stm32f1xx_hal_can.c ****   {
1284:Drivers/STM32F1xx_HAL_Driver/Src/stm32f1xx_hal_can.c ****     /* Call receive function */
1285:Drivers/STM32F1xx_HAL_Driver/Src/stm32f1xx_hal_can.c ****     CAN_Receive_IT(hcan, CAN_FIFO0);
1286:Drivers/STM32F1xx_HAL_Driver/Src/stm32f1xx_hal_can.c ****   }
1287:Drivers/STM32F1xx_HAL_Driver/Src/stm32f1xx_hal_can.c ****   
1288:Drivers/STM32F1xx_HAL_Driver/Src/stm32f1xx_hal_can.c ****   tmp1 = __HAL_CAN_MSG_PENDING(hcan, CAN_FIFO1);
1289:Drivers/STM32F1xx_HAL_Driver/Src/stm32f1xx_hal_can.c ****   tmp2 = __HAL_CAN_GET_IT_SOURCE(hcan, CAN_IT_FMP1);
1290:Drivers/STM32F1xx_HAL_Driver/Src/stm32f1xx_hal_can.c ****   /* Check End of reception flag for FIFO1 */
1291:Drivers/STM32F1xx_HAL_Driver/Src/stm32f1xx_hal_can.c ****   if((tmp1 != 0U) && tmp2)
1292:Drivers/STM32F1xx_HAL_Driver/Src/stm32f1xx_hal_can.c ****   {
1293:Drivers/STM32F1xx_HAL_Driver/Src/stm32f1xx_hal_can.c ****     /* Call receive function */
1294:Drivers/STM32F1xx_HAL_Driver/Src/stm32f1xx_hal_can.c ****     CAN_Receive_IT(hcan, CAN_FIFO1);
1295:Drivers/STM32F1xx_HAL_Driver/Src/stm32f1xx_hal_can.c ****   }
ARM GAS  /tmp/cc4XmUnq.s 			page 64


1296:Drivers/STM32F1xx_HAL_Driver/Src/stm32f1xx_hal_can.c **** 
1297:Drivers/STM32F1xx_HAL_Driver/Src/stm32f1xx_hal_can.c ****   /* Set error code in handle */
1298:Drivers/STM32F1xx_HAL_Driver/Src/stm32f1xx_hal_can.c ****   hcan->ErrorCode |= errorcode;
1299:Drivers/STM32F1xx_HAL_Driver/Src/stm32f1xx_hal_can.c **** 
1300:Drivers/STM32F1xx_HAL_Driver/Src/stm32f1xx_hal_can.c ****   tmp1 = __HAL_CAN_GET_FLAG(hcan, CAN_FLAG_EWG);
1301:Drivers/STM32F1xx_HAL_Driver/Src/stm32f1xx_hal_can.c ****   tmp2 = __HAL_CAN_GET_IT_SOURCE(hcan, CAN_IT_EWG);
1302:Drivers/STM32F1xx_HAL_Driver/Src/stm32f1xx_hal_can.c ****   tmp3 = __HAL_CAN_GET_IT_SOURCE(hcan, CAN_IT_ERR);
1303:Drivers/STM32F1xx_HAL_Driver/Src/stm32f1xx_hal_can.c ****   /* Check Error Warning Flag */
1304:Drivers/STM32F1xx_HAL_Driver/Src/stm32f1xx_hal_can.c ****   if(tmp1 && tmp2 && tmp3)
1305:Drivers/STM32F1xx_HAL_Driver/Src/stm32f1xx_hal_can.c ****   {
1306:Drivers/STM32F1xx_HAL_Driver/Src/stm32f1xx_hal_can.c ****     /* Set CAN error code to EWG error */
1307:Drivers/STM32F1xx_HAL_Driver/Src/stm32f1xx_hal_can.c ****     hcan->ErrorCode |= HAL_CAN_ERROR_EWG;
1308:Drivers/STM32F1xx_HAL_Driver/Src/stm32f1xx_hal_can.c ****     /* No need for clear of Error Warning Flag as read-only */
1309:Drivers/STM32F1xx_HAL_Driver/Src/stm32f1xx_hal_can.c ****   }
1310:Drivers/STM32F1xx_HAL_Driver/Src/stm32f1xx_hal_can.c ****   
1311:Drivers/STM32F1xx_HAL_Driver/Src/stm32f1xx_hal_can.c ****   tmp1 = __HAL_CAN_GET_FLAG(hcan, CAN_FLAG_EPV);
1312:Drivers/STM32F1xx_HAL_Driver/Src/stm32f1xx_hal_can.c ****   tmp2 = __HAL_CAN_GET_IT_SOURCE(hcan, CAN_IT_EPV);
1313:Drivers/STM32F1xx_HAL_Driver/Src/stm32f1xx_hal_can.c ****   tmp3 = __HAL_CAN_GET_IT_SOURCE(hcan, CAN_IT_ERR); 
1314:Drivers/STM32F1xx_HAL_Driver/Src/stm32f1xx_hal_can.c ****   /* Check Error Passive Flag */
1315:Drivers/STM32F1xx_HAL_Driver/Src/stm32f1xx_hal_can.c ****   if(tmp1 && tmp2 && tmp3)
1316:Drivers/STM32F1xx_HAL_Driver/Src/stm32f1xx_hal_can.c ****   {
1317:Drivers/STM32F1xx_HAL_Driver/Src/stm32f1xx_hal_can.c ****     /* Set CAN error code to EPV error */
1318:Drivers/STM32F1xx_HAL_Driver/Src/stm32f1xx_hal_can.c ****     hcan->ErrorCode |= HAL_CAN_ERROR_EPV;
1319:Drivers/STM32F1xx_HAL_Driver/Src/stm32f1xx_hal_can.c ****     /* No need for clear of Error Passive Flag as read-only */ 
1320:Drivers/STM32F1xx_HAL_Driver/Src/stm32f1xx_hal_can.c ****   }
1321:Drivers/STM32F1xx_HAL_Driver/Src/stm32f1xx_hal_can.c ****   
1322:Drivers/STM32F1xx_HAL_Driver/Src/stm32f1xx_hal_can.c ****   tmp1 = __HAL_CAN_GET_FLAG(hcan, CAN_FLAG_BOF);
1323:Drivers/STM32F1xx_HAL_Driver/Src/stm32f1xx_hal_can.c ****   tmp2 = __HAL_CAN_GET_IT_SOURCE(hcan, CAN_IT_BOF);
1324:Drivers/STM32F1xx_HAL_Driver/Src/stm32f1xx_hal_can.c ****   tmp3 = __HAL_CAN_GET_IT_SOURCE(hcan, CAN_IT_ERR);  
1325:Drivers/STM32F1xx_HAL_Driver/Src/stm32f1xx_hal_can.c ****   /* Check Bus-Off Flag */
1326:Drivers/STM32F1xx_HAL_Driver/Src/stm32f1xx_hal_can.c ****   if(tmp1 && tmp2 && tmp3)
1327:Drivers/STM32F1xx_HAL_Driver/Src/stm32f1xx_hal_can.c ****   {
1328:Drivers/STM32F1xx_HAL_Driver/Src/stm32f1xx_hal_can.c ****     /* Set CAN error code to BOF error */
1329:Drivers/STM32F1xx_HAL_Driver/Src/stm32f1xx_hal_can.c ****     hcan->ErrorCode |= HAL_CAN_ERROR_BOF;
1330:Drivers/STM32F1xx_HAL_Driver/Src/stm32f1xx_hal_can.c ****     /* No need for clear of Bus-Off Flag as read-only */
1331:Drivers/STM32F1xx_HAL_Driver/Src/stm32f1xx_hal_can.c ****   }
1332:Drivers/STM32F1xx_HAL_Driver/Src/stm32f1xx_hal_can.c ****   
1333:Drivers/STM32F1xx_HAL_Driver/Src/stm32f1xx_hal_can.c ****   tmp1 = HAL_IS_BIT_CLR(hcan->Instance->ESR, CAN_ESR_LEC);
1334:Drivers/STM32F1xx_HAL_Driver/Src/stm32f1xx_hal_can.c ****   tmp2 = __HAL_CAN_GET_IT_SOURCE(hcan, CAN_IT_LEC);
1335:Drivers/STM32F1xx_HAL_Driver/Src/stm32f1xx_hal_can.c ****   tmp3 = __HAL_CAN_GET_IT_SOURCE(hcan, CAN_IT_ERR);
1336:Drivers/STM32F1xx_HAL_Driver/Src/stm32f1xx_hal_can.c ****   /* Check Last error code Flag */
1337:Drivers/STM32F1xx_HAL_Driver/Src/stm32f1xx_hal_can.c ****   if((!tmp1) && tmp2 && tmp3)
1338:Drivers/STM32F1xx_HAL_Driver/Src/stm32f1xx_hal_can.c ****   {
1339:Drivers/STM32F1xx_HAL_Driver/Src/stm32f1xx_hal_can.c ****     tmp1 = (hcan->Instance->ESR & CAN_ESR_LEC);
1340:Drivers/STM32F1xx_HAL_Driver/Src/stm32f1xx_hal_can.c ****     switch(tmp1)
1341:Drivers/STM32F1xx_HAL_Driver/Src/stm32f1xx_hal_can.c ****     {
1342:Drivers/STM32F1xx_HAL_Driver/Src/stm32f1xx_hal_can.c ****       case(CAN_ESR_LEC_0):
1343:Drivers/STM32F1xx_HAL_Driver/Src/stm32f1xx_hal_can.c ****           /* Set CAN error code to STF error */
1344:Drivers/STM32F1xx_HAL_Driver/Src/stm32f1xx_hal_can.c ****           hcan->ErrorCode |= HAL_CAN_ERROR_STF;
1345:Drivers/STM32F1xx_HAL_Driver/Src/stm32f1xx_hal_can.c ****           break;
1346:Drivers/STM32F1xx_HAL_Driver/Src/stm32f1xx_hal_can.c ****       case(CAN_ESR_LEC_1):
1347:Drivers/STM32F1xx_HAL_Driver/Src/stm32f1xx_hal_can.c ****           /* Set CAN error code to FOR error */
1348:Drivers/STM32F1xx_HAL_Driver/Src/stm32f1xx_hal_can.c ****           hcan->ErrorCode |= HAL_CAN_ERROR_FOR;
1349:Drivers/STM32F1xx_HAL_Driver/Src/stm32f1xx_hal_can.c ****           break;
1350:Drivers/STM32F1xx_HAL_Driver/Src/stm32f1xx_hal_can.c ****       case(CAN_ESR_LEC_1 | CAN_ESR_LEC_0):
1351:Drivers/STM32F1xx_HAL_Driver/Src/stm32f1xx_hal_can.c ****           /* Set CAN error code to ACK error */
1352:Drivers/STM32F1xx_HAL_Driver/Src/stm32f1xx_hal_can.c ****           hcan->ErrorCode |= HAL_CAN_ERROR_ACK;
ARM GAS  /tmp/cc4XmUnq.s 			page 65


1353:Drivers/STM32F1xx_HAL_Driver/Src/stm32f1xx_hal_can.c ****           break;
1354:Drivers/STM32F1xx_HAL_Driver/Src/stm32f1xx_hal_can.c ****       case(CAN_ESR_LEC_2):
1355:Drivers/STM32F1xx_HAL_Driver/Src/stm32f1xx_hal_can.c ****           /* Set CAN error code to BR error */
1356:Drivers/STM32F1xx_HAL_Driver/Src/stm32f1xx_hal_can.c ****           hcan->ErrorCode |= HAL_CAN_ERROR_BR;
1357:Drivers/STM32F1xx_HAL_Driver/Src/stm32f1xx_hal_can.c ****           break;
1358:Drivers/STM32F1xx_HAL_Driver/Src/stm32f1xx_hal_can.c ****       case(CAN_ESR_LEC_2 | CAN_ESR_LEC_0):
1359:Drivers/STM32F1xx_HAL_Driver/Src/stm32f1xx_hal_can.c ****           /* Set CAN error code to BD error */
1360:Drivers/STM32F1xx_HAL_Driver/Src/stm32f1xx_hal_can.c ****           hcan->ErrorCode |= HAL_CAN_ERROR_BD;
1361:Drivers/STM32F1xx_HAL_Driver/Src/stm32f1xx_hal_can.c ****           break;
1362:Drivers/STM32F1xx_HAL_Driver/Src/stm32f1xx_hal_can.c ****       case(CAN_ESR_LEC_2 | CAN_ESR_LEC_1):
1363:Drivers/STM32F1xx_HAL_Driver/Src/stm32f1xx_hal_can.c ****           /* Set CAN error code to CRC error */
1364:Drivers/STM32F1xx_HAL_Driver/Src/stm32f1xx_hal_can.c ****           hcan->ErrorCode |= HAL_CAN_ERROR_CRC;
1365:Drivers/STM32F1xx_HAL_Driver/Src/stm32f1xx_hal_can.c ****           break;
1366:Drivers/STM32F1xx_HAL_Driver/Src/stm32f1xx_hal_can.c ****       default:
1367:Drivers/STM32F1xx_HAL_Driver/Src/stm32f1xx_hal_can.c ****           break;
1368:Drivers/STM32F1xx_HAL_Driver/Src/stm32f1xx_hal_can.c ****     }
1369:Drivers/STM32F1xx_HAL_Driver/Src/stm32f1xx_hal_can.c **** 
1370:Drivers/STM32F1xx_HAL_Driver/Src/stm32f1xx_hal_can.c ****     /* Clear Last error code Flag */ 
1371:Drivers/STM32F1xx_HAL_Driver/Src/stm32f1xx_hal_can.c ****     CLEAR_BIT(hcan->Instance->ESR, CAN_ESR_LEC);
1372:Drivers/STM32F1xx_HAL_Driver/Src/stm32f1xx_hal_can.c ****   }
1373:Drivers/STM32F1xx_HAL_Driver/Src/stm32f1xx_hal_can.c **** 
1374:Drivers/STM32F1xx_HAL_Driver/Src/stm32f1xx_hal_can.c ****   /* Call the Error call Back in case of Errors */
1375:Drivers/STM32F1xx_HAL_Driver/Src/stm32f1xx_hal_can.c ****   if(hcan->ErrorCode != HAL_CAN_ERROR_NONE)
1376:Drivers/STM32F1xx_HAL_Driver/Src/stm32f1xx_hal_can.c ****   {
1377:Drivers/STM32F1xx_HAL_Driver/Src/stm32f1xx_hal_can.c ****     /* Clear ERRI Flag */ 
1378:Drivers/STM32F1xx_HAL_Driver/Src/stm32f1xx_hal_can.c ****     hcan->Instance->MSR = CAN_MSR_ERRI; 
1379:Drivers/STM32F1xx_HAL_Driver/Src/stm32f1xx_hal_can.c ****     /* Set the CAN state ready to be able to start again the process */
1380:Drivers/STM32F1xx_HAL_Driver/Src/stm32f1xx_hal_can.c ****     hcan->State = HAL_CAN_STATE_READY;
1381:Drivers/STM32F1xx_HAL_Driver/Src/stm32f1xx_hal_can.c **** 
1382:Drivers/STM32F1xx_HAL_Driver/Src/stm32f1xx_hal_can.c ****     /* Disable interrupts: */
1383:Drivers/STM32F1xx_HAL_Driver/Src/stm32f1xx_hal_can.c ****     /*  - Disable Error warning Interrupt */
1384:Drivers/STM32F1xx_HAL_Driver/Src/stm32f1xx_hal_can.c ****     /*  - Disable Error passive Interrupt */
1385:Drivers/STM32F1xx_HAL_Driver/Src/stm32f1xx_hal_can.c ****     /*  - Disable Bus-off Interrupt */
1386:Drivers/STM32F1xx_HAL_Driver/Src/stm32f1xx_hal_can.c ****     /*  - Disable Last error code Interrupt */
1387:Drivers/STM32F1xx_HAL_Driver/Src/stm32f1xx_hal_can.c ****     /*  - Disable Error Interrupt */
1388:Drivers/STM32F1xx_HAL_Driver/Src/stm32f1xx_hal_can.c ****     /*  - Disable FIFO 0 message pending Interrupt */
1389:Drivers/STM32F1xx_HAL_Driver/Src/stm32f1xx_hal_can.c ****     /*  - Disable FIFO 0 Overrun Interrupt */
1390:Drivers/STM32F1xx_HAL_Driver/Src/stm32f1xx_hal_can.c ****     /*  - Disable FIFO 1 message pending Interrupt */
1391:Drivers/STM32F1xx_HAL_Driver/Src/stm32f1xx_hal_can.c ****     /*  - Disable FIFO 1 Overrun Interrupt */
1392:Drivers/STM32F1xx_HAL_Driver/Src/stm32f1xx_hal_can.c ****     /*  - Disable Transmit mailbox empty Interrupt */
1393:Drivers/STM32F1xx_HAL_Driver/Src/stm32f1xx_hal_can.c ****     __HAL_CAN_DISABLE_IT(hcan, CAN_IT_EWG |
1394:Drivers/STM32F1xx_HAL_Driver/Src/stm32f1xx_hal_can.c ****                                CAN_IT_EPV |
1395:Drivers/STM32F1xx_HAL_Driver/Src/stm32f1xx_hal_can.c ****                                CAN_IT_BOF |
1396:Drivers/STM32F1xx_HAL_Driver/Src/stm32f1xx_hal_can.c ****                                CAN_IT_LEC |
1397:Drivers/STM32F1xx_HAL_Driver/Src/stm32f1xx_hal_can.c ****                                CAN_IT_ERR |
1398:Drivers/STM32F1xx_HAL_Driver/Src/stm32f1xx_hal_can.c ****                                CAN_IT_FMP0|
1399:Drivers/STM32F1xx_HAL_Driver/Src/stm32f1xx_hal_can.c ****                                CAN_IT_FOV0|
1400:Drivers/STM32F1xx_HAL_Driver/Src/stm32f1xx_hal_can.c ****                                CAN_IT_FMP1|
1401:Drivers/STM32F1xx_HAL_Driver/Src/stm32f1xx_hal_can.c ****                                CAN_IT_FOV1|
1402:Drivers/STM32F1xx_HAL_Driver/Src/stm32f1xx_hal_can.c ****                                CAN_IT_TME  );
1403:Drivers/STM32F1xx_HAL_Driver/Src/stm32f1xx_hal_can.c **** 
1404:Drivers/STM32F1xx_HAL_Driver/Src/stm32f1xx_hal_can.c ****     /* Call Error callback function */
1405:Drivers/STM32F1xx_HAL_Driver/Src/stm32f1xx_hal_can.c ****     HAL_CAN_ErrorCallback(hcan);
1406:Drivers/STM32F1xx_HAL_Driver/Src/stm32f1xx_hal_can.c ****   }  
1407:Drivers/STM32F1xx_HAL_Driver/Src/stm32f1xx_hal_can.c **** }
1408:Drivers/STM32F1xx_HAL_Driver/Src/stm32f1xx_hal_can.c **** 
1409:Drivers/STM32F1xx_HAL_Driver/Src/stm32f1xx_hal_can.c **** /**
ARM GAS  /tmp/cc4XmUnq.s 			page 66


1410:Drivers/STM32F1xx_HAL_Driver/Src/stm32f1xx_hal_can.c ****   * @brief  Transmission  complete callback in non blocking mode 
1411:Drivers/STM32F1xx_HAL_Driver/Src/stm32f1xx_hal_can.c ****   * @param  hcan: pointer to a CAN_HandleTypeDef structure that contains
1412:Drivers/STM32F1xx_HAL_Driver/Src/stm32f1xx_hal_can.c ****   *         the configuration information for the specified CAN.
1413:Drivers/STM32F1xx_HAL_Driver/Src/stm32f1xx_hal_can.c ****   * @retval None
1414:Drivers/STM32F1xx_HAL_Driver/Src/stm32f1xx_hal_can.c ****   */
1415:Drivers/STM32F1xx_HAL_Driver/Src/stm32f1xx_hal_can.c **** __weak void HAL_CAN_TxCpltCallback(CAN_HandleTypeDef* hcan)
1416:Drivers/STM32F1xx_HAL_Driver/Src/stm32f1xx_hal_can.c **** {
 2088              		.loc 1 1416 0
 2089              		.cfi_startproc
 2090              		@ args = 0, pretend = 0, frame = 0
 2091              		@ frame_needed = 0, uses_anonymous_args = 0
 2092              		@ link register save eliminated.
 2093              	.LVL153:
 2094 0000 7047     		bx	lr
 2095              		.cfi_endproc
 2096              	.LFE76:
 2098              		.section	.text.CAN_Transmit_IT,"ax",%progbits
 2099              		.align	1
 2100              		.syntax unified
 2101              		.thumb
 2102              		.thumb_func
 2103              		.fpu softvfp
 2105              	CAN_Transmit_IT:
 2106              	.LFB81:
1417:Drivers/STM32F1xx_HAL_Driver/Src/stm32f1xx_hal_can.c ****   /* Prevent unused argument(s) compilation warning */
1418:Drivers/STM32F1xx_HAL_Driver/Src/stm32f1xx_hal_can.c ****   UNUSED(hcan);
1419:Drivers/STM32F1xx_HAL_Driver/Src/stm32f1xx_hal_can.c ****   /* NOTE : This function Should not be modified, when the callback is needed,
1420:Drivers/STM32F1xx_HAL_Driver/Src/stm32f1xx_hal_can.c ****             the HAL_CAN_TxCpltCallback can be implemented in the user file
1421:Drivers/STM32F1xx_HAL_Driver/Src/stm32f1xx_hal_can.c ****    */
1422:Drivers/STM32F1xx_HAL_Driver/Src/stm32f1xx_hal_can.c **** }
1423:Drivers/STM32F1xx_HAL_Driver/Src/stm32f1xx_hal_can.c **** 
1424:Drivers/STM32F1xx_HAL_Driver/Src/stm32f1xx_hal_can.c **** /**
1425:Drivers/STM32F1xx_HAL_Driver/Src/stm32f1xx_hal_can.c ****   * @brief  Transmission  complete callback in non blocking mode 
1426:Drivers/STM32F1xx_HAL_Driver/Src/stm32f1xx_hal_can.c ****   * @param  hcan: pointer to a CAN_HandleTypeDef structure that contains
1427:Drivers/STM32F1xx_HAL_Driver/Src/stm32f1xx_hal_can.c ****   *         the configuration information for the specified CAN.
1428:Drivers/STM32F1xx_HAL_Driver/Src/stm32f1xx_hal_can.c ****   * @retval None
1429:Drivers/STM32F1xx_HAL_Driver/Src/stm32f1xx_hal_can.c ****   */
1430:Drivers/STM32F1xx_HAL_Driver/Src/stm32f1xx_hal_can.c **** __weak void HAL_CAN_RxCpltCallback(CAN_HandleTypeDef* hcan)
1431:Drivers/STM32F1xx_HAL_Driver/Src/stm32f1xx_hal_can.c **** {
1432:Drivers/STM32F1xx_HAL_Driver/Src/stm32f1xx_hal_can.c ****   /* Prevent unused argument(s) compilation warning */
1433:Drivers/STM32F1xx_HAL_Driver/Src/stm32f1xx_hal_can.c ****   UNUSED(hcan);
1434:Drivers/STM32F1xx_HAL_Driver/Src/stm32f1xx_hal_can.c ****   /* NOTE : This function Should not be modified, when the callback is needed,
1435:Drivers/STM32F1xx_HAL_Driver/Src/stm32f1xx_hal_can.c ****             the HAL_CAN_RxCpltCallback can be implemented in the user file
1436:Drivers/STM32F1xx_HAL_Driver/Src/stm32f1xx_hal_can.c ****    */
1437:Drivers/STM32F1xx_HAL_Driver/Src/stm32f1xx_hal_can.c **** }
1438:Drivers/STM32F1xx_HAL_Driver/Src/stm32f1xx_hal_can.c **** 
1439:Drivers/STM32F1xx_HAL_Driver/Src/stm32f1xx_hal_can.c **** /**
1440:Drivers/STM32F1xx_HAL_Driver/Src/stm32f1xx_hal_can.c ****   * @brief  Error CAN callback.
1441:Drivers/STM32F1xx_HAL_Driver/Src/stm32f1xx_hal_can.c ****   * @param  hcan: pointer to a CAN_HandleTypeDef structure that contains
1442:Drivers/STM32F1xx_HAL_Driver/Src/stm32f1xx_hal_can.c ****   *         the configuration information for the specified CAN.
1443:Drivers/STM32F1xx_HAL_Driver/Src/stm32f1xx_hal_can.c ****   * @retval None
1444:Drivers/STM32F1xx_HAL_Driver/Src/stm32f1xx_hal_can.c ****   */
1445:Drivers/STM32F1xx_HAL_Driver/Src/stm32f1xx_hal_can.c **** __weak void HAL_CAN_ErrorCallback(CAN_HandleTypeDef *hcan)
1446:Drivers/STM32F1xx_HAL_Driver/Src/stm32f1xx_hal_can.c **** {
1447:Drivers/STM32F1xx_HAL_Driver/Src/stm32f1xx_hal_can.c ****   /* Prevent unused argument(s) compilation warning */
1448:Drivers/STM32F1xx_HAL_Driver/Src/stm32f1xx_hal_can.c ****   UNUSED(hcan);
1449:Drivers/STM32F1xx_HAL_Driver/Src/stm32f1xx_hal_can.c ****   /* NOTE : This function Should not be modified, when the callback is needed,
ARM GAS  /tmp/cc4XmUnq.s 			page 67


1450:Drivers/STM32F1xx_HAL_Driver/Src/stm32f1xx_hal_can.c ****             the HAL_CAN_ErrorCallback can be implemented in the user file
1451:Drivers/STM32F1xx_HAL_Driver/Src/stm32f1xx_hal_can.c ****    */
1452:Drivers/STM32F1xx_HAL_Driver/Src/stm32f1xx_hal_can.c **** }
1453:Drivers/STM32F1xx_HAL_Driver/Src/stm32f1xx_hal_can.c **** 
1454:Drivers/STM32F1xx_HAL_Driver/Src/stm32f1xx_hal_can.c **** /**
1455:Drivers/STM32F1xx_HAL_Driver/Src/stm32f1xx_hal_can.c ****   * @}
1456:Drivers/STM32F1xx_HAL_Driver/Src/stm32f1xx_hal_can.c ****   */
1457:Drivers/STM32F1xx_HAL_Driver/Src/stm32f1xx_hal_can.c **** 
1458:Drivers/STM32F1xx_HAL_Driver/Src/stm32f1xx_hal_can.c **** /** @defgroup CAN_Exported_Functions_Group3 Peripheral State and Error functions
1459:Drivers/STM32F1xx_HAL_Driver/Src/stm32f1xx_hal_can.c ****   *  @brief   CAN Peripheral State functions 
1460:Drivers/STM32F1xx_HAL_Driver/Src/stm32f1xx_hal_can.c ****   *
1461:Drivers/STM32F1xx_HAL_Driver/Src/stm32f1xx_hal_can.c **** @verbatim   
1462:Drivers/STM32F1xx_HAL_Driver/Src/stm32f1xx_hal_can.c ****   ==============================================================================
1463:Drivers/STM32F1xx_HAL_Driver/Src/stm32f1xx_hal_can.c ****             ##### Peripheral State and Error functions #####
1464:Drivers/STM32F1xx_HAL_Driver/Src/stm32f1xx_hal_can.c ****   ==============================================================================
1465:Drivers/STM32F1xx_HAL_Driver/Src/stm32f1xx_hal_can.c ****     [..]
1466:Drivers/STM32F1xx_HAL_Driver/Src/stm32f1xx_hal_can.c ****     This subsection provides functions allowing to :
1467:Drivers/STM32F1xx_HAL_Driver/Src/stm32f1xx_hal_can.c ****       (+) Check the CAN state.
1468:Drivers/STM32F1xx_HAL_Driver/Src/stm32f1xx_hal_can.c ****       (+) Check CAN Errors detected during interrupt process
1469:Drivers/STM32F1xx_HAL_Driver/Src/stm32f1xx_hal_can.c ****          
1470:Drivers/STM32F1xx_HAL_Driver/Src/stm32f1xx_hal_can.c **** @endverbatim
1471:Drivers/STM32F1xx_HAL_Driver/Src/stm32f1xx_hal_can.c ****   * @{
1472:Drivers/STM32F1xx_HAL_Driver/Src/stm32f1xx_hal_can.c ****   */
1473:Drivers/STM32F1xx_HAL_Driver/Src/stm32f1xx_hal_can.c **** 
1474:Drivers/STM32F1xx_HAL_Driver/Src/stm32f1xx_hal_can.c **** /**
1475:Drivers/STM32F1xx_HAL_Driver/Src/stm32f1xx_hal_can.c ****   * @brief  return the CAN state
1476:Drivers/STM32F1xx_HAL_Driver/Src/stm32f1xx_hal_can.c ****   * @param  hcan: pointer to a CAN_HandleTypeDef structure that contains
1477:Drivers/STM32F1xx_HAL_Driver/Src/stm32f1xx_hal_can.c ****   *         the configuration information for the specified CAN.
1478:Drivers/STM32F1xx_HAL_Driver/Src/stm32f1xx_hal_can.c ****   * @retval HAL state
1479:Drivers/STM32F1xx_HAL_Driver/Src/stm32f1xx_hal_can.c ****   */
1480:Drivers/STM32F1xx_HAL_Driver/Src/stm32f1xx_hal_can.c **** HAL_CAN_StateTypeDef HAL_CAN_GetState(CAN_HandleTypeDef* hcan)
1481:Drivers/STM32F1xx_HAL_Driver/Src/stm32f1xx_hal_can.c **** {
1482:Drivers/STM32F1xx_HAL_Driver/Src/stm32f1xx_hal_can.c ****   /* Return CAN state */
1483:Drivers/STM32F1xx_HAL_Driver/Src/stm32f1xx_hal_can.c ****   return hcan->State;
1484:Drivers/STM32F1xx_HAL_Driver/Src/stm32f1xx_hal_can.c **** }
1485:Drivers/STM32F1xx_HAL_Driver/Src/stm32f1xx_hal_can.c **** 
1486:Drivers/STM32F1xx_HAL_Driver/Src/stm32f1xx_hal_can.c **** /**
1487:Drivers/STM32F1xx_HAL_Driver/Src/stm32f1xx_hal_can.c ****   * @brief  Return the CAN error code
1488:Drivers/STM32F1xx_HAL_Driver/Src/stm32f1xx_hal_can.c ****   * @param  hcan: pointer to a CAN_HandleTypeDef structure that contains
1489:Drivers/STM32F1xx_HAL_Driver/Src/stm32f1xx_hal_can.c ****   *         the configuration information for the specified CAN.
1490:Drivers/STM32F1xx_HAL_Driver/Src/stm32f1xx_hal_can.c ****   * @retval CAN Error Code
1491:Drivers/STM32F1xx_HAL_Driver/Src/stm32f1xx_hal_can.c ****   */
1492:Drivers/STM32F1xx_HAL_Driver/Src/stm32f1xx_hal_can.c **** uint32_t HAL_CAN_GetError(CAN_HandleTypeDef *hcan)
1493:Drivers/STM32F1xx_HAL_Driver/Src/stm32f1xx_hal_can.c **** {
1494:Drivers/STM32F1xx_HAL_Driver/Src/stm32f1xx_hal_can.c ****   return hcan->ErrorCode;
1495:Drivers/STM32F1xx_HAL_Driver/Src/stm32f1xx_hal_can.c **** }
1496:Drivers/STM32F1xx_HAL_Driver/Src/stm32f1xx_hal_can.c **** 
1497:Drivers/STM32F1xx_HAL_Driver/Src/stm32f1xx_hal_can.c **** /**
1498:Drivers/STM32F1xx_HAL_Driver/Src/stm32f1xx_hal_can.c ****   * @}
1499:Drivers/STM32F1xx_HAL_Driver/Src/stm32f1xx_hal_can.c ****   */
1500:Drivers/STM32F1xx_HAL_Driver/Src/stm32f1xx_hal_can.c **** 
1501:Drivers/STM32F1xx_HAL_Driver/Src/stm32f1xx_hal_can.c **** /**
1502:Drivers/STM32F1xx_HAL_Driver/Src/stm32f1xx_hal_can.c ****   * @}
1503:Drivers/STM32F1xx_HAL_Driver/Src/stm32f1xx_hal_can.c ****   */
1504:Drivers/STM32F1xx_HAL_Driver/Src/stm32f1xx_hal_can.c **** 
1505:Drivers/STM32F1xx_HAL_Driver/Src/stm32f1xx_hal_can.c **** /** @addtogroup CAN_Private_Functions
1506:Drivers/STM32F1xx_HAL_Driver/Src/stm32f1xx_hal_can.c ****   * @{
ARM GAS  /tmp/cc4XmUnq.s 			page 68


1507:Drivers/STM32F1xx_HAL_Driver/Src/stm32f1xx_hal_can.c ****   */
1508:Drivers/STM32F1xx_HAL_Driver/Src/stm32f1xx_hal_can.c **** /**
1509:Drivers/STM32F1xx_HAL_Driver/Src/stm32f1xx_hal_can.c ****   * @brief  Initiates and transmits a CAN frame message.
1510:Drivers/STM32F1xx_HAL_Driver/Src/stm32f1xx_hal_can.c ****   * @param  hcan: pointer to a CAN_HandleTypeDef structure that contains
1511:Drivers/STM32F1xx_HAL_Driver/Src/stm32f1xx_hal_can.c ****   *         the configuration information for the specified CAN.  
1512:Drivers/STM32F1xx_HAL_Driver/Src/stm32f1xx_hal_can.c ****   * @retval HAL status
1513:Drivers/STM32F1xx_HAL_Driver/Src/stm32f1xx_hal_can.c ****   */
1514:Drivers/STM32F1xx_HAL_Driver/Src/stm32f1xx_hal_can.c **** static HAL_StatusTypeDef CAN_Transmit_IT(CAN_HandleTypeDef* hcan)
1515:Drivers/STM32F1xx_HAL_Driver/Src/stm32f1xx_hal_can.c **** {
 2107              		.loc 1 1515 0
 2108              		.cfi_startproc
 2109              		@ args = 0, pretend = 0, frame = 0
 2110              		@ frame_needed = 0, uses_anonymous_args = 0
 2111              	.LVL154:
 2112              		.loc 1 1515 0
 2113 0000 08B5     		push	{r3, lr}
 2114              	.LCFI21:
 2115              		.cfi_def_cfa_offset 8
 2116              		.cfi_offset 3, -8
 2117              		.cfi_offset 14, -4
1516:Drivers/STM32F1xx_HAL_Driver/Src/stm32f1xx_hal_can.c ****   /* Disable Transmit mailbox empty Interrupt */
1517:Drivers/STM32F1xx_HAL_Driver/Src/stm32f1xx_hal_can.c ****   __HAL_CAN_DISABLE_IT(hcan, CAN_IT_TME);
 2118              		.loc 1 1517 0
 2119 0002 0268     		ldr	r2, [r0]
 2120 0004 5369     		ldr	r3, [r2, #20]
 2121 0006 23F00103 		bic	r3, r3, #1
 2122 000a 5361     		str	r3, [r2, #20]
1518:Drivers/STM32F1xx_HAL_Driver/Src/stm32f1xx_hal_can.c ****   
1519:Drivers/STM32F1xx_HAL_Driver/Src/stm32f1xx_hal_can.c ****   if(hcan->State == HAL_CAN_STATE_BUSY_TX)
 2123              		.loc 1 1519 0
 2124 000c 90F83C30 		ldrb	r3, [r0, #60]	@ zero_extendqisi2
 2125 0010 DBB2     		uxtb	r3, r3
 2126 0012 122B     		cmp	r3, #18
 2127 0014 0CD0     		beq	.L241
 2128              	.L233:
1520:Drivers/STM32F1xx_HAL_Driver/Src/stm32f1xx_hal_can.c ****   {   
1521:Drivers/STM32F1xx_HAL_Driver/Src/stm32f1xx_hal_can.c ****     /* Disable interrupts: */
1522:Drivers/STM32F1xx_HAL_Driver/Src/stm32f1xx_hal_can.c ****     /*  - Disable Error warning Interrupt */
1523:Drivers/STM32F1xx_HAL_Driver/Src/stm32f1xx_hal_can.c ****     /*  - Disable Error passive Interrupt */
1524:Drivers/STM32F1xx_HAL_Driver/Src/stm32f1xx_hal_can.c ****     /*  - Disable Bus-off Interrupt */
1525:Drivers/STM32F1xx_HAL_Driver/Src/stm32f1xx_hal_can.c ****     /*  - Disable Last error code Interrupt */
1526:Drivers/STM32F1xx_HAL_Driver/Src/stm32f1xx_hal_can.c ****     /*  - Disable Error Interrupt */
1527:Drivers/STM32F1xx_HAL_Driver/Src/stm32f1xx_hal_can.c ****     __HAL_CAN_DISABLE_IT(hcan, CAN_IT_EWG |
1528:Drivers/STM32F1xx_HAL_Driver/Src/stm32f1xx_hal_can.c ****                                CAN_IT_EPV |
1529:Drivers/STM32F1xx_HAL_Driver/Src/stm32f1xx_hal_can.c ****                                CAN_IT_BOF |
1530:Drivers/STM32F1xx_HAL_Driver/Src/stm32f1xx_hal_can.c ****                                CAN_IT_LEC |
1531:Drivers/STM32F1xx_HAL_Driver/Src/stm32f1xx_hal_can.c ****                                CAN_IT_ERR);
1532:Drivers/STM32F1xx_HAL_Driver/Src/stm32f1xx_hal_can.c ****   }
1533:Drivers/STM32F1xx_HAL_Driver/Src/stm32f1xx_hal_can.c **** 
1534:Drivers/STM32F1xx_HAL_Driver/Src/stm32f1xx_hal_can.c ****   /* Change CAN state */
1535:Drivers/STM32F1xx_HAL_Driver/Src/stm32f1xx_hal_can.c ****   switch(hcan->State)
 2129              		.loc 1 1535 0
 2130 0016 90F83C30 		ldrb	r3, [r0, #60]	@ zero_extendqisi2
 2131 001a DBB2     		uxtb	r3, r3
 2132 001c 522B     		cmp	r3, #82
 2133 001e 14D0     		beq	.L235
 2134 0020 722B     		cmp	r3, #114
ARM GAS  /tmp/cc4XmUnq.s 			page 69


 2135 0022 16D0     		beq	.L236
 2136 0024 422B     		cmp	r3, #66
 2137 0026 09D0     		beq	.L242
1536:Drivers/STM32F1xx_HAL_Driver/Src/stm32f1xx_hal_can.c ****   {
1537:Drivers/STM32F1xx_HAL_Driver/Src/stm32f1xx_hal_can.c ****     case(HAL_CAN_STATE_BUSY_TX_RX0):
1538:Drivers/STM32F1xx_HAL_Driver/Src/stm32f1xx_hal_can.c ****       hcan->State = HAL_CAN_STATE_BUSY_RX0;
1539:Drivers/STM32F1xx_HAL_Driver/Src/stm32f1xx_hal_can.c ****       break;
1540:Drivers/STM32F1xx_HAL_Driver/Src/stm32f1xx_hal_can.c ****     case(HAL_CAN_STATE_BUSY_TX_RX1):
1541:Drivers/STM32F1xx_HAL_Driver/Src/stm32f1xx_hal_can.c ****       hcan->State = HAL_CAN_STATE_BUSY_RX1;
1542:Drivers/STM32F1xx_HAL_Driver/Src/stm32f1xx_hal_can.c ****       break;
1543:Drivers/STM32F1xx_HAL_Driver/Src/stm32f1xx_hal_can.c ****     case(HAL_CAN_STATE_BUSY_TX_RX0_RX1):
1544:Drivers/STM32F1xx_HAL_Driver/Src/stm32f1xx_hal_can.c ****       hcan->State = HAL_CAN_STATE_BUSY_RX0_RX1;
1545:Drivers/STM32F1xx_HAL_Driver/Src/stm32f1xx_hal_can.c ****       break;
1546:Drivers/STM32F1xx_HAL_Driver/Src/stm32f1xx_hal_can.c ****     default: /* HAL_CAN_STATE_BUSY_TX */
1547:Drivers/STM32F1xx_HAL_Driver/Src/stm32f1xx_hal_can.c ****       hcan->State = HAL_CAN_STATE_READY;
 2138              		.loc 1 1547 0
 2139 0028 0123     		movs	r3, #1
 2140 002a 80F83C30 		strb	r3, [r0, #60]
1548:Drivers/STM32F1xx_HAL_Driver/Src/stm32f1xx_hal_can.c ****       break;
 2141              		.loc 1 1548 0
 2142 002e 08E0     		b	.L238
 2143              	.L241:
1527:Drivers/STM32F1xx_HAL_Driver/Src/stm32f1xx_hal_can.c ****                                CAN_IT_EPV |
 2144              		.loc 1 1527 0
 2145 0030 0268     		ldr	r2, [r0]
 2146 0032 5369     		ldr	r3, [r2, #20]
 2147 0034 23F40F43 		bic	r3, r3, #36608
 2148 0038 5361     		str	r3, [r2, #20]
 2149 003a ECE7     		b	.L233
 2150              	.L242:
1538:Drivers/STM32F1xx_HAL_Driver/Src/stm32f1xx_hal_can.c ****       break;
 2151              		.loc 1 1538 0
 2152 003c 2223     		movs	r3, #34
 2153 003e 80F83C30 		strb	r3, [r0, #60]
 2154              	.L238:
1549:Drivers/STM32F1xx_HAL_Driver/Src/stm32f1xx_hal_can.c ****   }
1550:Drivers/STM32F1xx_HAL_Driver/Src/stm32f1xx_hal_can.c **** 
1551:Drivers/STM32F1xx_HAL_Driver/Src/stm32f1xx_hal_can.c ****   /* Transmission complete callback */ 
1552:Drivers/STM32F1xx_HAL_Driver/Src/stm32f1xx_hal_can.c ****   HAL_CAN_TxCpltCallback(hcan);
 2155              		.loc 1 1552 0
 2156 0042 FFF7FEFF 		bl	HAL_CAN_TxCpltCallback
 2157              	.LVL155:
1553:Drivers/STM32F1xx_HAL_Driver/Src/stm32f1xx_hal_can.c ****   
1554:Drivers/STM32F1xx_HAL_Driver/Src/stm32f1xx_hal_can.c ****   return HAL_OK;
1555:Drivers/STM32F1xx_HAL_Driver/Src/stm32f1xx_hal_can.c **** }
 2158              		.loc 1 1555 0
 2159 0046 0020     		movs	r0, #0
 2160 0048 08BD     		pop	{r3, pc}
 2161              	.LVL156:
 2162              	.L235:
1541:Drivers/STM32F1xx_HAL_Driver/Src/stm32f1xx_hal_can.c ****       break;
 2163              		.loc 1 1541 0
 2164 004a 3223     		movs	r3, #50
 2165 004c 80F83C30 		strb	r3, [r0, #60]
1542:Drivers/STM32F1xx_HAL_Driver/Src/stm32f1xx_hal_can.c ****     case(HAL_CAN_STATE_BUSY_TX_RX0_RX1):
 2166              		.loc 1 1542 0
 2167 0050 F7E7     		b	.L238
ARM GAS  /tmp/cc4XmUnq.s 			page 70


 2168              	.L236:
1544:Drivers/STM32F1xx_HAL_Driver/Src/stm32f1xx_hal_can.c ****       break;
 2169              		.loc 1 1544 0
 2170 0052 6223     		movs	r3, #98
 2171 0054 80F83C30 		strb	r3, [r0, #60]
1545:Drivers/STM32F1xx_HAL_Driver/Src/stm32f1xx_hal_can.c ****     default: /* HAL_CAN_STATE_BUSY_TX */
 2172              		.loc 1 1545 0
 2173 0058 F3E7     		b	.L238
 2174              		.cfi_endproc
 2175              	.LFE81:
 2177              		.section	.text.HAL_CAN_RxCpltCallback,"ax",%progbits
 2178              		.align	1
 2179              		.weak	HAL_CAN_RxCpltCallback
 2180              		.syntax unified
 2181              		.thumb
 2182              		.thumb_func
 2183              		.fpu softvfp
 2185              	HAL_CAN_RxCpltCallback:
 2186              	.LFB77:
1431:Drivers/STM32F1xx_HAL_Driver/Src/stm32f1xx_hal_can.c ****   /* Prevent unused argument(s) compilation warning */
 2187              		.loc 1 1431 0
 2188              		.cfi_startproc
 2189              		@ args = 0, pretend = 0, frame = 0
 2190              		@ frame_needed = 0, uses_anonymous_args = 0
 2191              		@ link register save eliminated.
 2192              	.LVL157:
 2193 0000 7047     		bx	lr
 2194              		.cfi_endproc
 2195              	.LFE77:
 2197              		.section	.text.CAN_Receive_IT,"ax",%progbits
 2198              		.align	1
 2199              		.syntax unified
